

Microchip MPLAB XC8 Assembler V3.10 build 20250813170317 
                                                                                               Thu Jun 25 10:12:03 2026

Microchip MPLAB XC8 C Compiler v3.10 (Free license) build 20250813170317 Og1 
     1                           	processor	18F4550
     2                           	fnconf	rparam,??,?,0
     3                           	pagewidth 120
     4                           	opt	flic
     5                           	psect	idataCOMRAM,global,class=CODE,space=0,delta=1,noexec
     6                           	psect	smallconst,global,reloc=2,class=SMALLCONST,space=0,delta=1,noexec
     7                           	psect	cinit,global,reloc=2,class=CODE,space=0,delta=1
     8                           	psect	bssCOMRAM,global,class=COMRAM,space=1,delta=1,lowdata,noexec
     9                           	psect	dataCOMRAM,global,class=COMRAM,space=1,delta=1,lowdata,noexec
    10                           	psect	cstackCOMRAM,global,class=COMRAM,space=1,delta=1,lowdata,noexec
    11                           	psect	text0,global,reloc=2,class=CODE,space=0,delta=1
    12                           	psect	text1,global,reloc=2,class=CODE,space=0,delta=1,group=3
    13                           	psect	text2,global,reloc=2,class=CODE,space=0,delta=1,group=1
    14                           	psect	text3,global,reloc=2,class=CODE,space=0,delta=1,group=1
    15                           	psect	text4,global,reloc=2,class=CODE,space=0,delta=1,group=3
    16                           	psect	text5,global,reloc=2,class=CODE,space=0,delta=1,group=3
    17                           	psect	text6,global,reloc=2,class=CODE,space=0,delta=1,group=2
    18                           	psect	text7,global,reloc=2,class=CODE,space=0,delta=1,group=2
    19                           	psect	text8,global,reloc=2,class=CODE,space=0,delta=1
    20                           	psect	text9,global,reloc=2,class=CODE,space=0,delta=1
    21                           	psect	text10,global,reloc=2,class=CODE,space=0,delta=1
    22                           	psect	text11,global,reloc=2,class=CODE,space=0,delta=1
    23                           	psect	text12,global,reloc=2,class=CODE,space=0,delta=1,group=2
    24                           	psect	text13,global,reloc=2,class=CODE,space=0,delta=1,group=2
    25                           	psect	text14,global,reloc=2,class=CODE,space=0,delta=1
    26                           	psect	text15,global,reloc=2,class=CODE,space=0,delta=1
    27                           	psect	text16,global,reloc=2,class=CODE,space=0,delta=1
    28                           	psect	text17,global,reloc=2,class=CODE,space=0,delta=1
    29                           	psect	text18,global,reloc=2,class=CODE,space=0,delta=1
    30                           	psect	text19,global,reloc=2,class=CODE,space=0,delta=1
    31                           	psect	text20,global,reloc=2,class=CODE,space=0,delta=1
    32                           	psect	text21,global,reloc=2,class=CODE,space=0,delta=1
    33                           	psect	intcode,global,reloc=2,class=CODE,space=0,delta=1
    34                           	psect	intcode_body,global,reloc=2,class=CODE,space=0,delta=1
    35                           	psect	intsave_regs,global,class=BIGRAM,space=1,delta=1,noexec
    36                           	psect	rparam,global,class=COMRAM,space=1,delta=1,noexec
    37                           	psect	idloc,global,abs,ovrld,class=IDLOC,space=5,delta=1,noexec
    38                           	psect	config,global,abs,ovrld,class=CONFIG,space=4,delta=1,noexec
    39                           	dabs	1,0x1,1
    40   000000                     
    41                           ; Version 2.40
    42                           ; Generated 17/11/2021 GMT
    43                           ; 
    44                           ; Copyright © 2021, Microchip Technology Inc. and its subsidiaries ("Microchip")
    45                           ; All rights reserved.
    46                           ; 
    47                           ; This software is developed by Microchip Technology Inc. and its subsidiaries ("Microch
      +                          ip").
    48                           ; 
    49                           ; Redistribution and use in source and binary forms, with or without modification, are
    50                           ; permitted provided that the following conditions are met:
    51                           ; 
    52                           ;     1. Redistributions of source code must retain the above copyright notice, this lis
      +                          t of
    53                           ;        conditions and the following disclaimer.
    54                           ; 
    55                           ;     2. Redistributions in binary form must reproduce the above copyright notice, this 
      +                          list
    56                           ;        of conditions and the following disclaimer in the documentation and/or other
    57                           ;        materials provided with the distribution. Publication is not required when
    58                           ;        this file is used in an embedded application.
    59                           ; 
    60                           ;     3. Microchip's name may not be used to endorse or promote products derived from th
      +                          is
    61                           ;        software without specific prior written permission.
    62                           ; 
    63                           ; THIS SOFTWARE IS PROVIDED BY MICROCHIP "AS IS" AND ANY EXPRESS OR IMPLIED WARRANTIES,
    64                           ; INCLUDING, BUT NOT LIMITED TO, THE IMPLIED WARRANTIES OF MERCHANTABILITY AND FITNESS F
      +                          OR
    65                           ; PURPOSE ARE DISCLAIMED.  IN NO EVENT SHALL MICROCHIP BE LIABLE FOR ANY DIRECT, INDIREC
      +                          T,
    66                           ; INCIDENTAL, SPECIAL, EXEMPLARY, OR CONSEQUENTIAL DAMAGES (INCLUDING BUT NOT LIMITED TO
    67                           ; PROCUREMENT OF SUBSTITUTE GOODS OR SERVICES; LOSS OF USE, DATA OR PROFITS; OR BUSINESS
    68                           ; INTERRUPTION) HOWSOEVER CAUSED AND ON ANY THEORY OF LIABILITY, WHETHER IN CONTRACT, ST
      +                          RICT
    69                           ; LIABILITY, OR TORT (INCLUDING NEGLIGENCE OR OTHERWISE) ARISING IN ANY WAY OUT OF THE U
      +                          SE OF
    70                           ; THIS SOFTWARE, EVEN IF ADVISED OF THE POSSIBILITY OF SUCH DAMAGE.
    71                           ; 
    72                           ; 
    73                           ; Code-generator required, PIC18F4550 Definitions
    74                           ; 
    75                           ; SFR Addresses
    76   000FE0                     bsr             equ	4064
    77   000FE9                     fsr0            equ	4073
    78   000FEA                     fsr0h           equ	4074
    79   000FE9                     fsr0l           equ	4073
    80   000FE1                     fsr1            equ	4065
    81   000FE2                     fsr1h           equ	4066
    82   000FE1                     fsr1l           equ	4065
    83   000FD9                     fsr2            equ	4057
    84   000FDA                     fsr2h           equ	4058
    85   000FD9                     fsr2l           equ	4057
    86   000FEF                     indf0           equ	4079
    87   000FE7                     indf1           equ	4071
    88   000FDF                     indf2           equ	4063
    89   000FF2                     intcon          equ	4082
    90   000000                     nvmcon          equ	0
    91   000FF9                     pcl             equ	4089
    92   000FFA                     pclath          equ	4090
    93   000FFB                     pclatu          equ	4091
    94   000FEB                     plusw0          equ	4075
    95   000FE3                     plusw1          equ	4067
    96   000FDB                     plusw2          equ	4059
    97   000FED                     postdec0        equ	4077
    98   000FE5                     postdec1        equ	4069
    99   000FDD                     postdec2        equ	4061
   100   000FEE                     postinc0        equ	4078
   101   000FE6                     postinc1        equ	4070
   102   000FDE                     postinc2        equ	4062
   103   000FEC                     preinc0         equ	4076
   104   000FE4                     preinc1         equ	4068
   105   000FDC                     preinc2         equ	4060
   106   000FF3                     prod            equ	4083
   107   000FF4                     prodh           equ	4084
   108   000FF3                     prodl           equ	4083
   109   000FD8                     status          equ	4056
   110   000FF5                     tablat          equ	4085
   111   000FF6                     tblptr          equ	4086
   112   000FF7                     tblptrh         equ	4087
   113   000FF6                     tblptrl         equ	4086
   114   000FF8                     tblptru         equ	4088
   115   000FFD                     tosl            equ	4093
   116   000FE8                     wreg            equ	4072
   117   000F62                     SPPDATA         equ	3938	;# 
   118   000F63                     SPPCFG          equ	3939	;# 
   119   000F64                     SPPEPS          equ	3940	;# 
   120   000F65                     SPPCON          equ	3941	;# 
   121   000F66                     UFRM            equ	3942	;# 
   122   000F66                     UFRML           equ	3942	;# 
   123   000F67                     UFRMH           equ	3943	;# 
   124   000F68                     UIR             equ	3944	;# 
   125   000F69                     UIE             equ	3945	;# 
   126   000F6A                     UEIR            equ	3946	;# 
   127   000F6B                     UEIE            equ	3947	;# 
   128   000F6C                     USTAT           equ	3948	;# 
   129   000F6D                     UCON            equ	3949	;# 
   130   000F6E                     UADDR           equ	3950	;# 
   131   000F6F                     UCFG            equ	3951	;# 
   132   000F70                     UEP0            equ	3952	;# 
   133   000F71                     UEP1            equ	3953	;# 
   134   000F72                     UEP2            equ	3954	;# 
   135   000F73                     UEP3            equ	3955	;# 
   136   000F74                     UEP4            equ	3956	;# 
   137   000F75                     UEP5            equ	3957	;# 
   138   000F76                     UEP6            equ	3958	;# 
   139   000F77                     UEP7            equ	3959	;# 
   140   000F78                     UEP8            equ	3960	;# 
   141   000F79                     UEP9            equ	3961	;# 
   142   000F7A                     UEP10           equ	3962	;# 
   143   000F7B                     UEP11           equ	3963	;# 
   144   000F7C                     UEP12           equ	3964	;# 
   145   000F7D                     UEP13           equ	3965	;# 
   146   000F7E                     UEP14           equ	3966	;# 
   147   000F7F                     UEP15           equ	3967	;# 
   148   000F80                     PORTA           equ	3968	;# 
   149   000F81                     PORTB           equ	3969	;# 
   150   000F82                     PORTC           equ	3970	;# 
   151   000F83                     PORTD           equ	3971	;# 
   152   000F84                     PORTE           equ	3972	;# 
   153   000F89                     LATA            equ	3977	;# 
   154   000F8A                     LATB            equ	3978	;# 
   155   000F8B                     LATC            equ	3979	;# 
   156   000F8C                     LATD            equ	3980	;# 
   157   000F8D                     LATE            equ	3981	;# 
   158   000F92                     TRISA           equ	3986	;# 
   159   000F92                     DDRA            equ	3986	;# 
   160   000F93                     TRISB           equ	3987	;# 
   161   000F93                     DDRB            equ	3987	;# 
   162   000F94                     TRISC           equ	3988	;# 
   163   000F94                     DDRC            equ	3988	;# 
   164   000F95                     TRISD           equ	3989	;# 
   165   000F95                     DDRD            equ	3989	;# 
   166   000F96                     TRISE           equ	3990	;# 
   167   000F96                     DDRE            equ	3990	;# 
   168   000F9B                     OSCTUNE         equ	3995	;# 
   169   000F9D                     PIE1            equ	3997	;# 
   170   000F9E                     PIR1            equ	3998	;# 
   171   000F9F                     IPR1            equ	3999	;# 
   172   000FA0                     PIE2            equ	4000	;# 
   173   000FA1                     PIR2            equ	4001	;# 
   174   000FA2                     IPR2            equ	4002	;# 
   175   000FA6                     EECON1          equ	4006	;# 
   176   000FA7                     EECON2          equ	4007	;# 
   177   000FA8                     EEDATA          equ	4008	;# 
   178   000FA9                     EEADR           equ	4009	;# 
   179   000FAB                     RCSTA           equ	4011	;# 
   180   000FAB                     RCSTA1          equ	4011	;# 
   181   000FAC                     TXSTA           equ	4012	;# 
   182   000FAC                     TXSTA1          equ	4012	;# 
   183   000FAD                     TXREG           equ	4013	;# 
   184   000FAD                     TXREG1          equ	4013	;# 
   185   000FAE                     RCREG           equ	4014	;# 
   186   000FAE                     RCREG1          equ	4014	;# 
   187   000FAF                     SPBRG           equ	4015	;# 
   188   000FAF                     SPBRG1          equ	4015	;# 
   189   000FB0                     SPBRGH          equ	4016	;# 
   190   000FB1                     T3CON           equ	4017	;# 
   191   000FB2                     TMR3            equ	4018	;# 
   192   000FB2                     TMR3L           equ	4018	;# 
   193   000FB3                     TMR3H           equ	4019	;# 
   194   000FB4                     CMCON           equ	4020	;# 
   195   000FB5                     CVRCON          equ	4021	;# 
   196   000FB6                     ECCP1AS         equ	4022	;# 
   197   000FB6                     CCP1AS          equ	4022	;# 
   198   000FB7                     ECCP1DEL        equ	4023	;# 
   199   000FB7                     CCP1DEL         equ	4023	;# 
   200   000FB8                     BAUDCON         equ	4024	;# 
   201   000FB8                     BAUDCTL         equ	4024	;# 
   202   000FBA                     CCP2CON         equ	4026	;# 
   203   000FBB                     CCPR2           equ	4027	;# 
   204   000FBB                     CCPR2L          equ	4027	;# 
   205   000FBC                     CCPR2H          equ	4028	;# 
   206   000FBD                     CCP1CON         equ	4029	;# 
   207   000FBD                     ECCP1CON        equ	4029	;# 
   208   000FBE                     CCPR1           equ	4030	;# 
   209   000FBE                     CCPR1L          equ	4030	;# 
   210   000FBF                     CCPR1H          equ	4031	;# 
   211   000FC0                     ADCON2          equ	4032	;# 
   212   000FC1                     ADCON1          equ	4033	;# 
   213   000FC2                     ADCON0          equ	4034	;# 
   214   000FC3                     ADRES           equ	4035	;# 
   215   000FC3                     ADRESL          equ	4035	;# 
   216   000FC4                     ADRESH          equ	4036	;# 
   217   000FC5                     SSPCON2         equ	4037	;# 
   218   000FC6                     SSPCON1         equ	4038	;# 
   219   000FC7                     SSPSTAT         equ	4039	;# 
   220   000FC8                     SSPADD          equ	4040	;# 
   221   000FC9                     SSPBUF          equ	4041	;# 
   222   000FCA                     T2CON           equ	4042	;# 
   223   000FCB                     PR2             equ	4043	;# 
   224   000FCB                     MEMCON          equ	4043	;# 
   225   000FCC                     TMR2            equ	4044	;# 
   226   000FCD                     T1CON           equ	4045	;# 
   227   000FCE                     TMR1            equ	4046	;# 
   228   000FCE                     TMR1L           equ	4046	;# 
   229   000FCF                     TMR1H           equ	4047	;# 
   230   000FD0                     RCON            equ	4048	;# 
   231   000FD1                     WDTCON          equ	4049	;# 
   232   000FD2                     HLVDCON         equ	4050	;# 
   233   000FD2                     LVDCON          equ	4050	;# 
   234   000FD3                     OSCCON          equ	4051	;# 
   235   000FD5                     T0CON           equ	4053	;# 
   236   000FD6                     TMR0            equ	4054	;# 
   237   000FD6                     TMR0L           equ	4054	;# 
   238   000FD7                     TMR0H           equ	4055	;# 
   239   000FD8                     STATUS          equ	4056	;# 
   240   000FD9                     FSR2            equ	4057	;# 
   241   000FD9                     FSR2L           equ	4057	;# 
   242   000FDA                     FSR2H           equ	4058	;# 
   243   000FDB                     PLUSW2          equ	4059	;# 
   244   000FDC                     PREINC2         equ	4060	;# 
   245   000FDD                     POSTDEC2        equ	4061	;# 
   246   000FDE                     POSTINC2        equ	4062	;# 
   247   000FDF                     INDF2           equ	4063	;# 
   248   000FE0                     BSR             equ	4064	;# 
   249   000FE1                     FSR1            equ	4065	;# 
   250   000FE1                     FSR1L           equ	4065	;# 
   251   000FE2                     FSR1H           equ	4066	;# 
   252   000FE3                     PLUSW1          equ	4067	;# 
   253   000FE4                     PREINC1         equ	4068	;# 
   254   000FE5                     POSTDEC1        equ	4069	;# 
   255   000FE6                     POSTINC1        equ	4070	;# 
   256   000FE7                     INDF1           equ	4071	;# 
   257   000FE8                     WREG            equ	4072	;# 
   258   000FE9                     FSR0            equ	4073	;# 
   259   000FE9                     FSR0L           equ	4073	;# 
   260   000FEA                     FSR0H           equ	4074	;# 
   261   000FEB                     PLUSW0          equ	4075	;# 
   262   000FEC                     PREINC0         equ	4076	;# 
   263   000FED                     POSTDEC0        equ	4077	;# 
   264   000FEE                     POSTINC0        equ	4078	;# 
   265   000FEF                     INDF0           equ	4079	;# 
   266   000FF0                     INTCON3         equ	4080	;# 
   267   000FF1                     INTCON2         equ	4081	;# 
   268   000FF2                     INTCON          equ	4082	;# 
   269   000FF3                     PROD            equ	4083	;# 
   270   000FF3                     PRODL           equ	4083	;# 
   271   000FF4                     PRODH           equ	4084	;# 
   272   000FF5                     TABLAT          equ	4085	;# 
   273   000FF6                     TBLPTR          equ	4086	;# 
   274   000FF6                     TBLPTRL         equ	4086	;# 
   275   000FF7                     TBLPTRH         equ	4087	;# 
   276   000FF8                     TBLPTRU         equ	4088	;# 
   277   000FF9                     PCLAT           equ	4089	;# 
   278   000FF9                     PC              equ	4089	;# 
   279   000FF9                     PCL             equ	4089	;# 
   280   000FFA                     PCLATH          equ	4090	;# 
   281   000FFB                     PCLATU          equ	4091	;# 
   282   000FFC                     STKPTR          equ	4092	;# 
   283   000FFD                     TOS             equ	4093	;# 
   284   000FFD                     TOSL            equ	4093	;# 
   285   000FFE                     TOSH            equ	4094	;# 
   286   000FFF                     TOSU            equ	4095	;# 
   287   000F62                     SPPDATA         equ	3938	;# 
   288   000F63                     SPPCFG          equ	3939	;# 
   289   000F64                     SPPEPS          equ	3940	;# 
   290   000F65                     SPPCON          equ	3941	;# 
   291   000F66                     UFRM            equ	3942	;# 
   292   000F66                     UFRML           equ	3942	;# 
   293   000F67                     UFRMH           equ	3943	;# 
   294   000F68                     UIR             equ	3944	;# 
   295   000F69                     UIE             equ	3945	;# 
   296   000F6A                     UEIR            equ	3946	;# 
   297   000F6B                     UEIE            equ	3947	;# 
   298   000F6C                     USTAT           equ	3948	;# 
   299   000F6D                     UCON            equ	3949	;# 
   300   000F6E                     UADDR           equ	3950	;# 
   301   000F6F                     UCFG            equ	3951	;# 
   302   000F70                     UEP0            equ	3952	;# 
   303   000F71                     UEP1            equ	3953	;# 
   304   000F72                     UEP2            equ	3954	;# 
   305   000F73                     UEP3            equ	3955	;# 
   306   000F74                     UEP4            equ	3956	;# 
   307   000F75                     UEP5            equ	3957	;# 
   308   000F76                     UEP6            equ	3958	;# 
   309   000F77                     UEP7            equ	3959	;# 
   310   000F78                     UEP8            equ	3960	;# 
   311   000F79                     UEP9            equ	3961	;# 
   312   000F7A                     UEP10           equ	3962	;# 
   313   000F7B                     UEP11           equ	3963	;# 
   314   000F7C                     UEP12           equ	3964	;# 
   315   000F7D                     UEP13           equ	3965	;# 
   316   000F7E                     UEP14           equ	3966	;# 
   317   000F7F                     UEP15           equ	3967	;# 
   318   000F80                     PORTA           equ	3968	;# 
   319   000F81                     PORTB           equ	3969	;# 
   320   000F82                     PORTC           equ	3970	;# 
   321   000F83                     PORTD           equ	3971	;# 
   322   000F84                     PORTE           equ	3972	;# 
   323   000F89                     LATA            equ	3977	;# 
   324   000F8A                     LATB            equ	3978	;# 
   325   000F8B                     LATC            equ	3979	;# 
   326   000F8C                     LATD            equ	3980	;# 
   327   000F8D                     LATE            equ	3981	;# 
   328   000F92                     TRISA           equ	3986	;# 
   329   000F92                     DDRA            equ	3986	;# 
   330   000F93                     TRISB           equ	3987	;# 
   331   000F93                     DDRB            equ	3987	;# 
   332   000F94                     TRISC           equ	3988	;# 
   333   000F94                     DDRC            equ	3988	;# 
   334   000F95                     TRISD           equ	3989	;# 
   335   000F95                     DDRD            equ	3989	;# 
   336   000F96                     TRISE           equ	3990	;# 
   337   000F96                     DDRE            equ	3990	;# 
   338   000F9B                     OSCTUNE         equ	3995	;# 
   339   000F9D                     PIE1            equ	3997	;# 
   340   000F9E                     PIR1            equ	3998	;# 
   341   000F9F                     IPR1            equ	3999	;# 
   342   000FA0                     PIE2            equ	4000	;# 
   343   000FA1                     PIR2            equ	4001	;# 
   344   000FA2                     IPR2            equ	4002	;# 
   345   000FA6                     EECON1          equ	4006	;# 
   346   000FA7                     EECON2          equ	4007	;# 
   347   000FA8                     EEDATA          equ	4008	;# 
   348   000FA9                     EEADR           equ	4009	;# 
   349   000FAB                     RCSTA           equ	4011	;# 
   350   000FAB                     RCSTA1          equ	4011	;# 
   351   000FAC                     TXSTA           equ	4012	;# 
   352   000FAC                     TXSTA1          equ	4012	;# 
   353   000FAD                     TXREG           equ	4013	;# 
   354   000FAD                     TXREG1          equ	4013	;# 
   355   000FAE                     RCREG           equ	4014	;# 
   356   000FAE                     RCREG1          equ	4014	;# 
   357   000FAF                     SPBRG           equ	4015	;# 
   358   000FAF                     SPBRG1          equ	4015	;# 
   359   000FB0                     SPBRGH          equ	4016	;# 
   360   000FB1                     T3CON           equ	4017	;# 
   361   000FB2                     TMR3            equ	4018	;# 
   362   000FB2                     TMR3L           equ	4018	;# 
   363   000FB3                     TMR3H           equ	4019	;# 
   364   000FB4                     CMCON           equ	4020	;# 
   365   000FB5                     CVRCON          equ	4021	;# 
   366   000FB6                     ECCP1AS         equ	4022	;# 
   367   000FB6                     CCP1AS          equ	4022	;# 
   368   000FB7                     ECCP1DEL        equ	4023	;# 
   369   000FB7                     CCP1DEL         equ	4023	;# 
   370   000FB8                     BAUDCON         equ	4024	;# 
   371   000FB8                     BAUDCTL         equ	4024	;# 
   372   000FBA                     CCP2CON         equ	4026	;# 
   373   000FBB                     CCPR2           equ	4027	;# 
   374   000FBB                     CCPR2L          equ	4027	;# 
   375   000FBC                     CCPR2H          equ	4028	;# 
   376   000FBD                     CCP1CON         equ	4029	;# 
   377   000FBD                     ECCP1CON        equ	4029	;# 
   378   000FBE                     CCPR1           equ	4030	;# 
   379   000FBE                     CCPR1L          equ	4030	;# 
   380   000FBF                     CCPR1H          equ	4031	;# 
   381   000FC0                     ADCON2          equ	4032	;# 
   382   000FC1                     ADCON1          equ	4033	;# 
   383   000FC2                     ADCON0          equ	4034	;# 
   384   000FC3                     ADRES           equ	4035	;# 
   385   000FC3                     ADRESL          equ	4035	;# 
   386   000FC4                     ADRESH          equ	4036	;# 
   387   000FC5                     SSPCON2         equ	4037	;# 
   388   000FC6                     SSPCON1         equ	4038	;# 
   389   000FC7                     SSPSTAT         equ	4039	;# 
   390   000FC8                     SSPADD          equ	4040	;# 
   391   000FC9                     SSPBUF          equ	4041	;# 
   392   000FCA                     T2CON           equ	4042	;# 
   393   000FCB                     PR2             equ	4043	;# 
   394   000FCB                     MEMCON          equ	4043	;# 
   395   000FCC                     TMR2            equ	4044	;# 
   396   000FCD                     T1CON           equ	4045	;# 
   397   000FCE                     TMR1            equ	4046	;# 
   398   000FCE                     TMR1L           equ	4046	;# 
   399   000FCF                     TMR1H           equ	4047	;# 
   400   000FD0                     RCON            equ	4048	;# 
   401   000FD1                     WDTCON          equ	4049	;# 
   402   000FD2                     HLVDCON         equ	4050	;# 
   403   000FD2                     LVDCON          equ	4050	;# 
   404   000FD3                     OSCCON          equ	4051	;# 
   405   000FD5                     T0CON           equ	4053	;# 
   406   000FD6                     TMR0            equ	4054	;# 
   407   000FD6                     TMR0L           equ	4054	;# 
   408   000FD7                     TMR0H           equ	4055	;# 
   409   000FD8                     STATUS          equ	4056	;# 
   410   000FD9                     FSR2            equ	4057	;# 
   411   000FD9                     FSR2L           equ	4057	;# 
   412   000FDA                     FSR2H           equ	4058	;# 
   413   000FDB                     PLUSW2          equ	4059	;# 
   414   000FDC                     PREINC2         equ	4060	;# 
   415   000FDD                     POSTDEC2        equ	4061	;# 
   416   000FDE                     POSTINC2        equ	4062	;# 
   417   000FDF                     INDF2           equ	4063	;# 
   418   000FE0                     BSR             equ	4064	;# 
   419   000FE1                     FSR1            equ	4065	;# 
   420   000FE1                     FSR1L           equ	4065	;# 
   421   000FE2                     FSR1H           equ	4066	;# 
   422   000FE3                     PLUSW1          equ	4067	;# 
   423   000FE4                     PREINC1         equ	4068	;# 
   424   000FE5                     POSTDEC1        equ	4069	;# 
   425   000FE6                     POSTINC1        equ	4070	;# 
   426   000FE7                     INDF1           equ	4071	;# 
   427   000FE8                     WREG            equ	4072	;# 
   428   000FE9                     FSR0            equ	4073	;# 
   429   000FE9                     FSR0L           equ	4073	;# 
   430   000FEA                     FSR0H           equ	4074	;# 
   431   000FEB                     PLUSW0          equ	4075	;# 
   432   000FEC                     PREINC0         equ	4076	;# 
   433   000FED                     POSTDEC0        equ	4077	;# 
   434   000FEE                     POSTINC0        equ	4078	;# 
   435   000FEF                     INDF0           equ	4079	;# 
   436   000FF0                     INTCON3         equ	4080	;# 
   437   000FF1                     INTCON2         equ	4081	;# 
   438   000FF2                     INTCON          equ	4082	;# 
   439   000FF3                     PROD            equ	4083	;# 
   440   000FF3                     PRODL           equ	4083	;# 
   441   000FF4                     PRODH           equ	4084	;# 
   442   000FF5                     TABLAT          equ	4085	;# 
   443   000FF6                     TBLPTR          equ	4086	;# 
   444   000FF6                     TBLPTRL         equ	4086	;# 
   445   000FF7                     TBLPTRH         equ	4087	;# 
   446   000FF8                     TBLPTRU         equ	4088	;# 
   447   000FF9                     PCLAT           equ	4089	;# 
   448   000FF9                     PC              equ	4089	;# 
   449   000FF9                     PCL             equ	4089	;# 
   450   000FFA                     PCLATH          equ	4090	;# 
   451   000FFB                     PCLATU          equ	4091	;# 
   452   000FFC                     STKPTR          equ	4092	;# 
   453   000FFD                     TOS             equ	4093	;# 
   454   000FFD                     TOSL            equ	4093	;# 
   455   000FFE                     TOSH            equ	4094	;# 
   456   000FFF                     TOSU            equ	4095	;# 
   457                           
   458                           	psect	idataCOMRAM
   459   001284                     __pidataCOMRAM:
   460                           	callstack 0
   461                           
   462                           ;initializer for _valor
   463   001284  0200               	dw	512
   464   000F8D                     _LATEbits       set	3981
   465   000F96                     _TRISEbits      set	3990
   466   000F95                     _TRISD          set	3989
   467   000F83                     _PORTD          set	3971
   468   000FC3                     _ADRESL         set	4035
   469   000FC4                     _ADRESH         set	4036
   470   000FC2                     _ADCON0bits     set	4034
   471   000FF2                     _INTCONbits     set	4082
   472   000FD0                     _RCONbits       set	4048
   473   000FF1                     _INTCON2bits    set	4081
   474   000FBA                     _CCP2CON        set	4026
   475   000FCA                     _T2CON          set	4042
   476   000FCB                     _PR2            set	4043
   477   000FC0                     _ADCON2         set	4032
   478   000FC1                     _ADCON1         set	4033
   479   000FC2                     _ADCON0         set	4034
   480   000F94                     _TRISCbits      set	3988
   481   000FAF                     _SPBRG          set	4015
   482   000FAB                     _RCSTA          set	4011
   483   000FAC                     _TXSTA          set	4012
   484   000F93                     _TRISB          set	3987
   485   000F92                     _TRISA          set	3986
   486   000FF0                     _INTCON3bits    set	4080
   487   000FAD                     _TXREG          set	4013
   488   000F9E                     _PIR1bits       set	3998
   489   000FBA                     _CCP2CONbits    set	4026
   490   000FBB                     _CCPR2L         set	4027
   491                           
   492                           	psect	smallconst
   493   000800                     __psmallconst:
   494                           	callstack 0
   495   000800  00                 	db	0
   496   000801                     STR_2:
   497   000801  54                 	db	84	;'T'
   498   000802  65                 	db	101	;'e'
   499   000803  6D                 	db	109	;'m'
   500   000804  70                 	db	112	;'p'
   501   000805  3A                 	db	58	;':'
   502   000806  00                 	db	0
   503   000807                     STR_4:
   504   000807  0D                 	db	13
   505   000808  0A                 	db	10
   506   000809  00                 	db	0
   507   00080A                     STR_3:
   508   00080A  43                 	db	67	;'C'
   509   00080B  20                 	db	32
   510   00080C  00                 	db	0
   511   00080D                     STR_1:
   512   00080D  25                 	db	37
   513   00080E  75                 	db	117	;'u'
   514   00080F  00                 	db	0
   515   000810  00                 	db	0	; dummy byte at the end
   516   000800                     __smallconst    set	__psmallconst
   517   000800                     __mediumconst   set	__psmallconst
   518   000002                     __activetblptr  equ	2
   519                           
   520                           ; #config settings
   521                           
   522                           	psect	cinit
   523   0011F6                     __pcinit:
   524                           	callstack 0
   525   0011F6                     start_initialization:
   526                           	callstack 0
   527   0011F6                     __initialization:
   528                           	callstack 0
   529                           
   530                           ; Initialize objects allocated to COMRAM (2 bytes)
   531                           ; load TBLPTR registers with __pidataCOMRAM
   532   0011F6  0E84               	movlw	low __pidataCOMRAM
   533   0011F8  6EF6               	movwf	tblptrl,c
   534   0011FA  0E12               	movlw	high __pidataCOMRAM
   535   0011FC  6EF7               	movwf	tblptrh,c
   536   0011FE  0E00               	movlw	low (__pidataCOMRAM shr (0+16))
   537   001200  6EF8               	movwf	tblptru,c
   538   001202  0009               	tblrd		*+	;fetch initializer
   539   001204  CFF5 F05D          	movff	tablat,__pdataCOMRAM
   540   001208  0009               	tblrd		*+	;fetch initializer
   541   00120A  CFF5 F05E          	movff	tablat,__pdataCOMRAM+1
   542                           
   543                           ; Clear objects allocated to COMRAM (37 bytes)
   544   00120E  EE00  F038         	lfsr	0,__pbssCOMRAM
   545   001212  0E25               	movlw	37
   546   001214                     clear_0:
   547   001214  6AEE               	clrf	postinc0,c
   548   001216  06E8               	decf	wreg,f,c
   549   001218  E1FD               	bnz	clear_0
   550   00121A                     end_of_initialization:
   551                           	callstack 0
   552   00121A                     __end_of__initialization:
   553                           	callstack 0
   554   00121A  9001               	bcf	int$flags,0,c	;clear compiler interrupt flag (level 1)
   555   00121C  9201               	bcf	int$flags,1,c	;clear compiler interrupt flag (level 2)
   556   00121E  0E00               	movlw	low (__Lmediumconst shr (0+16))
   557   001220  6EF8               	movwf	tblptru,c
   558   001222  0100               	movlb	0
   559   001224  EF09  F004         	goto	_main	;jump to C main() function
   560                           
   561                           	psect	bssCOMRAM
   562   000038                     __pbssCOMRAM:
   563                           	callstack 0
   564   000038                     _dbuf:
   565                           	callstack 0
   566   000038                     	ds	32
   567   000058                     _width:
   568                           	callstack 0
   569   000058                     	ds	2
   570   00005A                     _prec:
   571                           	callstack 0
   572   00005A                     	ds	2
   573   00005C                     _flags:
   574                           	callstack 0
   575   00005C                     	ds	1
   576                           
   577                           	psect	dataCOMRAM
   578   00005D                     __pdataCOMRAM:
   579                           	callstack 0
   580   00005D                     _valor:
   581                           	callstack 0
   582   00005D                     	ds	2
   583                           
   584                           	psect	cstackCOMRAM
   585   000002                     __pcstackCOMRAM:
   586                           	callstack 0
   587   000002                     ?___lwdiv:
   588                           	callstack 0
   589   000002                     ?___lwmod:
   590                           	callstack 0
   591   000002                     ?___lmul:
   592                           	callstack 0
   593   000002                     SetDDRamAddr@DDaddr:
   594                           	callstack 0
   595   000002                     WriteCmdXLCD@cmd:
   596                           	callstack 0
   597   000002                     WriteDataXLCD@data:
   598                           	callstack 0
   599   000002                     ajusta_dc@dc:
   600                           	callstack 0
   601   000002                     UART_Write_Text@txt:
   602                           	callstack 0
   603   000002                     ___lwdiv@dividend:
   604                           	callstack 0
   605   000002                     ___lwmod@dividend:
   606                           	callstack 0
   607   000002                     fputc@c:
   608                           	callstack 0
   609   000002                     ___lmul@multiplier:
   610                           	callstack 0
   611   000002                     ??_DelayPORXLCD:
   612   000002                     ??_DelayXLCD:
   613   000002                     
   614                           ; 1 bytes @ 0x0
   615   000002                     	ds	1
   616   000003                     OpenXLCD@lcdtype:
   617                           	callstack 0
   618   000003                     putrsXLCD@buffer:
   619                           	callstack 0
   620   000003                     putsXLCD@buffer:
   621                           	callstack 0
   622   000003                     
   623                           ; 1 bytes @ 0x1
   624   000003                     	ds	1
   625   000004                     fputc@fp:
   626                           	callstack 0
   627   000004                     ___lwdiv@divisor:
   628                           	callstack 0
   629   000004                     ___lwmod@divisor:
   630                           	callstack 0
   631   000004                     ??_ajusta_dc:
   632   000004                     
   633                           ; 1 bytes @ 0x2
   634   000004                     	ds	1
   635   000005                     ??_fputc:
   636                           
   637                           ; 1 bytes @ 0x3
   638   000005                     	ds	1
   639   000006                     ___lwmod@counter:
   640                           	callstack 0
   641   000006                     ___lwdiv@quotient:
   642                           	callstack 0
   643   000006                     ___lmul@multiplicand:
   644                           	callstack 0
   645   000006                     
   646                           ; 1 bytes @ 0x4
   647   000006                     	ds	2
   648   000008                     ___lwdiv@counter:
   649                           	callstack 0
   650                           
   651                           ; 1 bytes @ 0x6
   652   000008                     	ds	2
   653   00000A                     vfpfcnvrt@fp:
   654                           	callstack 0
   655   00000A                     ___lmul@product:
   656                           	callstack 0
   657   00000A                     
   658                           ; 1 bytes @ 0x8
   659   00000A                     	ds	1
   660   00000B                     vfpfcnvrt@fmt:
   661                           	callstack 0
   662                           
   663                           ; 1 bytes @ 0x9
   664   00000B                     	ds	1
   665   00000C                     vfpfcnvrt@ap:
   666                           	callstack 0
   667                           
   668                           ; 1 bytes @ 0xA
   669   00000C                     	ds	1
   670   00000D                     ??_vfpfcnvrt:
   671                           
   672                           ; 1 bytes @ 0xB
   673   00000D                     	ds	1
   674   00000E                     ?___aldiv:
   675                           	callstack 0
   676   00000E                     ___aldiv@dividend:
   677                           	callstack 0
   678   00000E                     vfpfcnvrt@convarg:
   679                           	callstack 0
   680                           
   681                           ; 4 bytes @ 0xC
   682   00000E                     	ds	4
   683   000012                     vfpfcnvrt@cp:
   684                           	callstack 0
   685   000012                     ___aldiv@divisor:
   686                           	callstack 0
   687                           
   688                           ; 4 bytes @ 0x10
   689   000012                     	ds	1
   690   000013                     vfpfcnvrt@c:
   691                           	callstack 0
   692                           
   693                           ; 1 bytes @ 0x11
   694   000013                     	ds	1
   695   000014                     ?_vfprintf:
   696                           	callstack 0
   697   000014                     vfprintf@fp:
   698                           	callstack 0
   699                           
   700                           ; 1 bytes @ 0x12
   701   000014                     	ds	1
   702   000015                     vfprintf@fmt:
   703                           	callstack 0
   704                           
   705                           ; 1 bytes @ 0x13
   706   000015                     	ds	1
   707   000016                     ___aldiv@counter:
   708                           	callstack 0
   709   000016                     vfprintf@ap:
   710                           	callstack 0
   711   000016                     
   712                           ; 1 bytes @ 0x14
   713   000016                     	ds	1
   714   000017                     ___aldiv@sign:
   715                           	callstack 0
   716   000017                     vfprintf@cfmt:
   717                           	callstack 0
   718   000017                     
   719                           ; 1 bytes @ 0x15
   720   000017                     	ds	1
   721   000018                     ?_sprintf:
   722                           	callstack 0
   723   000018                     sprintf@s:
   724                           	callstack 0
   725   000018                     ___aldiv@quotient:
   726                           	callstack 0
   727                           
   728                           ; 4 bytes @ 0x16
   729   000018                     	ds	1
   730   000019                     sprintf@fmt:
   731                           	callstack 0
   732                           
   733                           ; 1 bytes @ 0x17
   734   000019                     	ds	3
   735   00001C                     sprintf@ap:
   736                           	callstack 0
   737   00001C                     
   738                           ; 1 bytes @ 0x1A
   739   00001C                     	ds	1
   740   00001D                     sprintf@f:
   741                           	callstack 0
   742                           
   743                           ; 11 bytes @ 0x1B
   744   00001D                     	ds	11
   745   000028                     ??_main:
   746                           
   747                           ; 1 bytes @ 0x26
   748   000028                     	ds	2
   749   00002A                     main@temp_str:
   750                           	callstack 0
   751                           
   752                           ; 6 bytes @ 0x28
   753   00002A                     	ds	6
   754   000030                     main@v:
   755                           	callstack 0
   756                           
   757                           ; 4 bytes @ 0x2E
   758   000030                     	ds	4
   759   000034                     main@q:
   760                           	callstack 0
   761                           
   762                           ; 2 bytes @ 0x32
   763   000034                     	ds	2
   764   000036                     main@temp:
   765                           	callstack 0
   766                           
   767                           ; 2 bytes @ 0x34
   768   000036                     	ds	2
   769                           
   770 ;;
   771 ;;Main: autosize = 0, tempsize = 2, incstack = 0, save=0
   772 ;;
   773 ;; *************** function _main *****************
   774 ;; Defined at:
   775 ;;		line 124 in file "ex_ad.c"
   776 ;; Parameters:    Size  Location     Type
   777 ;;		None
   778 ;; Auto vars:     Size  Location     Type
   779 ;;  temp_str        6   40[COMRAM] unsigned char [6]
   780 ;;  ADC             6    0        unsigned char [6]
   781 ;;  v               4   46[COMRAM] long 
   782 ;;  temp            2   52[COMRAM] unsigned int 
   783 ;;  q               2   50[COMRAM] unsigned int 
   784 ;; Return value:  Size  Location     Type
   785 ;;                  1    wreg      void 
   786 ;; Registers used:
   787 ;;		wreg, fsr1l, fsr1h, fsr2l, fsr2h, status,2, status,0, tblptrl, tblptrh, tblptru, cstack
   788 ;; Tracked objects:
   789 ;;		On entry : 0/0
   790 ;;		On exit  : 0/0
   791 ;;		Unchanged: 0/0
   792 ;; Data sizes:     COMRAM   BANK0   BANK1   BANK2   BANK3   BANK4   BANK5   BANK6   BANK7
   793 ;;      Params:         0       0       0       0       0       0       0       0       0
   794 ;;      Locals:        14       0       0       0       0       0       0       0       0
   795 ;;      Temps:          2       0       0       0       0       0       0       0       0
   796 ;;      Totals:        16       0       0       0       0       0       0       0       0
   797 ;;Total ram usage:       16 bytes
   798 ;; Hardware stack levels required when called: 6
   799 ;; This function calls:
   800 ;;		_OpenXLCD
   801 ;;		_UART_Write_Text
   802 ;;		_WriteCmdXLCD
   803 ;;		___aldiv
   804 ;;		___lmul
   805 ;;		_ajusta_dc
   806 ;;		_putrsXLCD
   807 ;;		_putsXLCD
   808 ;;		_sprintf
   809 ;; This function is called by:
   810 ;;		Startup code after reset
   811 ;; This function uses a non-reentrant model
   812 ;;
   813                           
   814                           	psect	text0
   815   000812                     __ptext0:
   816                           	callstack 0
   817   000812                     _main:
   818                           	callstack 25
   819   000812  0E01               	movlw	1
   820   000814  6E92               	movwf	146,c	;volatile
   821   000816  0E06               	movlw	6
   822   000818  6E93               	movwf	147,c	;volatile
   823   00081A  0E24               	movlw	36
   824   00081C  6EAC               	movwf	172,c	;volatile
   825   00081E  0E80               	movlw	128
   826   000820  6EAB               	movwf	171,c	;volatile
   827   000822  0E81               	movlw	129
   828   000824  6EAF               	movwf	175,c	;volatile
   829   000826  9294               	bcf	148,1,c	;volatile
   830   000828  0E01               	movlw	1
   831   00082A  6EC2               	movwf	194,c	;volatile
   832   00082C  0E0E               	movlw	14
   833   00082E  6EC1               	movwf	193,c	;volatile
   834   000830  0EBD               	movlw	189
   835   000832  6EC0               	movwf	192,c	;volatile
   836   000834  0EC7               	movlw	199
   837   000836  6ECB               	movwf	203,c	;volatile
   838   000838  0E05               	movlw	5
   839   00083A  6ECA               	movwf	202,c	;volatile
   840   00083C  0E0C               	movlw	12
   841   00083E  6EBA               	movwf	186,c	;volatile
   842   000840  86F0               	bsf	240,3,c	;volatile
   843   000842  88F0               	bsf	240,4,c	;volatile
   844   000844  90F0               	bcf	240,0,c	;volatile
   845   000846  92F0               	bcf	240,1,c	;volatile
   846   000848  8AF1               	bsf	241,5,c	;volatile
   847   00084A  88F1               	bsf	241,4,c	;volatile
   848   00084C  8ED0               	bsf	208,7,c	;volatile
   849   00084E  8EF2               	bsf	242,7,c	;volatile
   850   000850  8CF2               	bsf	242,6,c	;volatile
   851   000852  0E28               	movlw	40
   852   000854  EC02  F006         	call	_OpenXLCD
   853   000858  0E01               	movlw	1
   854   00085A  ECBE  F008         	call	_WriteCmdXLCD
   855   00085E  0E68               	movlw	104
   856   000860  6E28               	movwf	??_main^0,c
   857   000862  0EE4               	movlw	228
   858   000864                     u837:
   859   000864  2EE8               	decfsz	wreg,f,c
   860   000866  D7FE               	bra	u837
   861   000868  2E28               	decfsz	??_main^0,f,c
   862   00086A  D7FC               	bra	u837
   863   00086C  D000               	nop2	
   864   00086E                     l1797:
   865                           
   866                           ;ex_ad.c: 197:     {;ex_ad.c: 198:         ajusta_dc(valor);
   867   00086E  C05D  F002         	movff	_valor,ajusta_dc@dc
   868   000872  C05E  F003         	movff	_valor+1,ajusta_dc@dc+1
   869   000876  EC13  F008         	call	_ajusta_dc	;wreg free
   870   00087A                     
   871                           ;ex_ad.c: 200:         ADCON0bits.GO_DONE = 1;
   872   00087A  82C2               	bsf	194,1,c	;volatile
   873   00087C                     l88:
   874   00087C  B2C2               	btfsc	194,1,c	;volatile
   875   00087E  EF43  F004         	goto	u821
   876   000882  EF45  F004         	goto	u820
   877   000886                     u821:
   878   000886  EF3E  F004         	goto	l88
   879   00088A                     u820:
   880   00088A                     
   881                           ;ex_ad.c: 203:         q = (ADRESH << 8) | ADRESL;
   882   00088A  50C3               	movf	195,w,c	;volatile
   883   00088C  CFC4 F028          	movff	4036,??_main	;volatile
   884   000890  6A29               	clrf	(??_main+1)^0,c
   885   000892  C028  F029         	movff	??_main,??_main+1
   886   000896  6A28               	clrf	??_main^0,c
   887   000898  1028               	iorwf	??_main^0,w,c
   888   00089A  6E34               	movwf	main@q^0,c
   889   00089C  5029               	movf	(??_main+1)^0,w,c
   890   00089E  6E35               	movwf	(main@q+1)^0,c
   891   0008A0                     
   892                           ;ex_ad.c: 205:         v = (5000L * q) / 1023;
   893   0008A0  C034  F002         	movff	main@q,___lmul@multiplier
   894   0008A4  C035  F003         	movff	main@q+1,___lmul@multiplier+1
   895   0008A8  6A04               	clrf	(___lmul@multiplier+2)^0,c
   896   0008AA  6A05               	clrf	(___lmul@multiplier+3)^0,c
   897   0008AC  0E88               	movlw	136
   898   0008AE  6E06               	movwf	___lmul@multiplicand^0,c
   899   0008B0  0E13               	movlw	19
   900   0008B2  6E07               	movwf	(___lmul@multiplicand+1)^0,c
   901   0008B4  0E00               	movlw	0
   902   0008B6  6E08               	movwf	(___lmul@multiplicand+2)^0,c
   903   0008B8  0E00               	movlw	0
   904   0008BA  6E09               	movwf	(___lmul@multiplicand+3)^0,c
   905   0008BC  EC77  F007         	call	___lmul	;wreg free
   906   0008C0  C002  F00E         	movff	?___lmul,___aldiv@dividend
   907   0008C4  C003  F00F         	movff	?___lmul+1,___aldiv@dividend+1
   908   0008C8  C004  F010         	movff	?___lmul+2,___aldiv@dividend+2
   909   0008CC  C005  F011         	movff	?___lmul+3,___aldiv@dividend+3
   910   0008D0  0EFF               	movlw	255
   911   0008D2  6E12               	movwf	___aldiv@divisor^0,c
   912   0008D4  0E03               	movlw	3
   913   0008D6  6E13               	movwf	(___aldiv@divisor+1)^0,c
   914   0008D8  0E00               	movlw	0
   915   0008DA  6E14               	movwf	(___aldiv@divisor+2)^0,c
   916   0008DC  0E00               	movlw	0
   917   0008DE  6E15               	movwf	(___aldiv@divisor+3)^0,c
   918   0008E0  EC7D  F005         	call	___aldiv	;wreg free
   919   0008E4  C00E  F030         	movff	?___aldiv,main@v
   920   0008E8  C00F  F031         	movff	?___aldiv+1,main@v+1
   921   0008EC  C010  F032         	movff	?___aldiv+2,main@v+2
   922   0008F0  C011  F033         	movff	?___aldiv+3,main@v+3
   923   0008F4                     
   924                           ;ex_ad.c: 207:         temp = v / 10;
   925   0008F4  C030  F00E         	movff	main@v,___aldiv@dividend
   926   0008F8  C031  F00F         	movff	main@v+1,___aldiv@dividend+1
   927   0008FC  C032  F010         	movff	main@v+2,___aldiv@dividend+2
   928   000900  C033  F011         	movff	main@v+3,___aldiv@dividend+3
   929   000904  0E0A               	movlw	10
   930   000906  6E12               	movwf	___aldiv@divisor^0,c
   931   000908  0E00               	movlw	0
   932   00090A  6E13               	movwf	(___aldiv@divisor+1)^0,c
   933   00090C  0E00               	movlw	0
   934   00090E  6E14               	movwf	(___aldiv@divisor+2)^0,c
   935   000910  0E00               	movlw	0
   936   000912  6E15               	movwf	(___aldiv@divisor+3)^0,c
   937   000914  EC7D  F005         	call	___aldiv	;wreg free
   938   000918  C00E  F036         	movff	?___aldiv,main@temp
   939   00091C  C00F  F037         	movff	?___aldiv+1,main@temp+1
   940   000920                     
   941                           ;ex_ad.c: 209:         sprintf(temp_str, "%u", temp);
   942   000920  0E2A               	movlw	low main@temp_str
   943   000922  6E18               	movwf	sprintf@s^0,c
   944   000924  0E0D               	movlw	low STR_1
   945   000926  6E19               	movwf	sprintf@fmt^0,c
   946   000928  C036  F01A         	movff	main@temp,?_sprintf+2
   947   00092C  C037  F01B         	movff	main@temp+1,?_sprintf+3
   948   000930  EC14  F009         	call	_sprintf	;wreg free
   949   000934                     
   950                           ;ex_ad.c: 212:         WriteCmdXLCD(0x80);
   951   000934  0E80               	movlw	128
   952   000936  ECBE  F008         	call	_WriteCmdXLCD
   953   00093A                     
   954                           ;ex_ad.c: 213:         putsXLCD("Temp:");
   955   00093A  0E01               	movlw	low STR_2
   956   00093C  6E03               	movwf	putsXLCD@buffer^0,c
   957   00093E  5003               	movf	putsXLCD@buffer^0,w,c
   958   000940  A4D8               	btfss	status,2,c
   959   000942  0E08               	movlw	high __smallconst
   960   000944  6E04               	movwf	(putsXLCD@buffer+1)^0,c
   961   000946  EC07  F007         	call	_putsXLCD	;wreg free
   962   00094A                     
   963                           ;ex_ad.c: 214:         putsXLCD(temp_str);
   964   00094A  0E2A               	movlw	low main@temp_str
   965   00094C  6E03               	movwf	putsXLCD@buffer^0,c
   966   00094E  6A04               	clrf	(putsXLCD@buffer+1)^0,c
   967   000950  EC07  F007         	call	_putsXLCD	;wreg free
   968   000954                     
   969                           ;ex_ad.c: 215:         putrsXLCD("C ");
   970   000954  0E0A               	movlw	low STR_3
   971   000956  6E03               	movwf	putrsXLCD@buffer^0,c
   972   000958  EC38  F008         	call	_putrsXLCD	;wreg free
   973   00095C                     
   974                           ;ex_ad.c: 218:         UART_Write_Text(temp_str);
   975   00095C  0E2A               	movlw	low main@temp_str
   976   00095E  6E02               	movwf	UART_Write_Text@txt^0,c
   977   000960  6A03               	clrf	(UART_Write_Text@txt+1)^0,c
   978   000962  ECAC  F007         	call	_UART_Write_Text	;wreg free
   979   000966                     
   980                           ;ex_ad.c: 219:         UART_Write_Text("\r\n");
   981   000966  0E07               	movlw	low STR_4
   982   000968  6E02               	movwf	UART_Write_Text@txt^0,c
   983   00096A  5002               	movf	UART_Write_Text@txt^0,w,c
   984   00096C  A4D8               	btfss	status,2,c
   985   00096E  0E08               	movlw	high __smallconst
   986   000970  6E03               	movwf	(UART_Write_Text@txt+1)^0,c
   987   000972  ECAC  F007         	call	_UART_Write_Text	;wreg free
   988   000976                     
   989                           ;ex_ad.c: 221:         _delay((unsigned long)((500)*(20000000/4000.0)));
   990   000976  0E0D               	movlw	13
   991   000978  6E29               	movwf	(??_main+1)^0,c
   992   00097A  0EAF               	movlw	175
   993   00097C  6E28               	movwf	??_main^0,c
   994   00097E  0EB6               	movlw	182
   995   000980                     u847:
   996   000980  2EE8               	decfsz	wreg,f,c
   997   000982  D7FE               	bra	u847
   998   000984  2E28               	decfsz	??_main^0,f,c
   999   000986  D7FC               	bra	u847
  1000   000988  2E29               	decfsz	(??_main+1)^0,f,c
  1001   00098A  D7FA               	bra	u847
  1002   00098C  D000               	nop2	
  1003   00098E  EF37  F004         	goto	l1797
  1004   000992  EF07  F000         	goto	start
  1005   000996                     __end_of_main:
  1006                           	callstack 0
  1007                           
  1008 ;; *************** function _sprintf *****************
  1009 ;; Defined at:
  1010 ;;		line 9 in file "C:\Program Files\Microchip\xc8\v3.10\pic\sources\c99\common\nf_sprintf.c"
  1011 ;; Parameters:    Size  Location     Type
  1012 ;;  s               1   22[COMRAM] PTR unsigned char 
  1013 ;;		 -> main@temp_str(6), 
  1014 ;;  fmt             1   23[COMRAM] PTR const unsigned char 
  1015 ;;		 -> STR_1(3), 
  1016 ;; Auto vars:     Size  Location     Type
  1017 ;;  f              11   27[COMRAM] struct _IO_FILE
  1018 ;;  ret             2    0        int 
  1019 ;;  ap              1   26[COMRAM] PTR void [1]
  1020 ;;		 -> ?_sprintf(2), 
  1021 ;; Return value:  Size  Location     Type
  1022 ;;                  2   22[COMRAM] int 
  1023 ;; Registers used:
  1024 ;;		wreg, fsr1l, fsr1h, fsr2l, fsr2h, status,2, status,0, tblptrl, tblptrh, tblptru, cstack
  1025 ;; Tracked objects:
  1026 ;;		On entry : 0/0
  1027 ;;		On exit  : 0/0
  1028 ;;		Unchanged: 0/0
  1029 ;; Data sizes:     COMRAM   BANK0   BANK1   BANK2   BANK3   BANK4   BANK5   BANK6   BANK7
  1030 ;;      Params:         4       0       0       0       0       0       0       0       0
  1031 ;;      Locals:        12       0       0       0       0       0       0       0       0
  1032 ;;      Temps:          0       0       0       0       0       0       0       0       0
  1033 ;;      Totals:        16       0       0       0       0       0       0       0       0
  1034 ;;Total ram usage:       16 bytes
  1035 ;; Hardware stack levels used: 1
  1036 ;; Hardware stack levels required when called: 5
  1037 ;; This function calls:
  1038 ;;		_vfprintf
  1039 ;; This function is called by:
  1040 ;;		_main
  1041 ;; This function uses a non-reentrant model
  1042 ;;
  1043                           
  1044                           	psect	text1
  1045   001228                     __ptext1:
  1046                           	callstack 0
  1047   001228                     _sprintf:
  1048                           	callstack 25
  1049   001228  0E1A               	movlw	low (?_sprintf+2)
  1050   00122A  6E1C               	movwf	sprintf@ap^0,c
  1051   00122C  C018  F01D         	movff	sprintf@s,sprintf@f
  1052   001230  6A20               	clrf	(sprintf@f+3)^0,c
  1053   001232  0E00               	movlw	0
  1054   001234  6E1F               	movwf	(sprintf@f+2)^0,c
  1055   001236  6A27               	clrf	(sprintf@f+10)^0,c
  1056   001238  0E00               	movlw	0
  1057   00123A  6E26               	movwf	(sprintf@f+9)^0,c
  1058   00123C  0E1D               	movlw	low sprintf@f
  1059   00123E  6E14               	movwf	vfprintf@fp^0,c
  1060   001240  C019  F015         	movff	sprintf@fmt,vfprintf@fmt
  1061   001244  0E1C               	movlw	low sprintf@ap
  1062   001246  6E16               	movwf	vfprintf@ap^0,c
  1063   001248  ECDD  F008         	call	_vfprintf	;wreg free
  1064   00124C  5018               	movf	sprintf@s^0,w,c
  1065   00124E  241F               	addwf	(sprintf@f+2)^0,w,c
  1066   001250  6ED9               	movwf	fsr2l,c
  1067   001252  6ADA               	clrf	fsr2h,c
  1068   001254  6ADF               	clrf	indf2,c
  1069   001256  0012               	return		;funcret
  1070   001258                     __end_of_sprintf:
  1071                           	callstack 0
  1072                           
  1073 ;; *************** function _vfprintf *****************
  1074 ;; Defined at:
  1075 ;;		line 1817 in file "C:\Program Files\Microchip\xc8\v3.10\pic\sources\c99\common\doprnt.c"
  1076 ;; Parameters:    Size  Location     Type
  1077 ;;  fp              1   18[COMRAM] PTR struct _IO_FILE
  1078 ;;		 -> sprintf@f(11), 
  1079 ;;  fmt             1   19[COMRAM] PTR const unsigned char 
  1080 ;;		 -> STR_1(3), 
  1081 ;;  ap              1   20[COMRAM] PTR PTR void 
  1082 ;;		 -> sprintf@ap(1), 
  1083 ;; Auto vars:     Size  Location     Type
  1084 ;;  cfmt            1   21[COMRAM] PTR unsigned char 
  1085 ;;		 -> STR_1(3), 
  1086 ;; Return value:  Size  Location     Type
  1087 ;;                  2   18[COMRAM] int 
  1088 ;; Registers used:
  1089 ;;		wreg, fsr1l, fsr1h, fsr2l, fsr2h, status,2, status,0, tblptrl, tblptrh, tblptru, cstack
  1090 ;; Tracked objects:
  1091 ;;		On entry : 0/0
  1092 ;;		On exit  : 0/0
  1093 ;;		Unchanged: 0/0
  1094 ;; Data sizes:     COMRAM   BANK0   BANK1   BANK2   BANK3   BANK4   BANK5   BANK6   BANK7
  1095 ;;      Params:         3       0       0       0       0       0       0       0       0
  1096 ;;      Locals:         1       0       0       0       0       0       0       0       0
  1097 ;;      Temps:          0       0       0       0       0       0       0       0       0
  1098 ;;      Totals:         4       0       0       0       0       0       0       0       0
  1099 ;;Total ram usage:        4 bytes
  1100 ;; Hardware stack levels used: 1
  1101 ;; Hardware stack levels required when called: 4
  1102 ;; This function calls:
  1103 ;;		_vfpfcnvrt
  1104 ;; This function is called by:
  1105 ;;		_sprintf
  1106 ;; This function uses a non-reentrant model
  1107 ;;
  1108                           
  1109                           	psect	text2
  1110   0011BA                     __ptext2:
  1111                           	callstack 0
  1112   0011BA                     _vfprintf:
  1113                           	callstack 25
  1114   0011BA                     
  1115                           ;C:\Program Files\Microchip\xc8\v3.10\pic\sources\c99\common\doprnt.c: 1817: int vfprint
      +                          f(FILE *fp, const char *fmt, va_list ap);C:\Program Files\Microchip\xc8\v3.10\pic\source
      +                          s\c99\common\doprnt.c: 1818: {;C:\Program Files\Microchip\xc8\v3.10\pic\sources\c99\comm
      +                          on\doprnt.c: 1820:     char *cfmt;;C:\Program Files\Microchip\xc8\v3.10\pic\sources\c99\
      +                          common\doprnt.c: 1822:     cfmt = (char *)fmt;
  1116   0011BA  C015  F017         	movff	vfprintf@fmt,vfprintf@cfmt
  1117                           
  1118                           ;C:\Program Files\Microchip\xc8\v3.10\pic\sources\c99\common\doprnt.c: 1826:     while (
      +                          *cfmt) {
  1119   0011BE  EFE9  F008         	goto	l1667
  1120   0011C2                     l1665:
  1121                           
  1122                           ;C:\Program Files\Microchip\xc8\v3.10\pic\sources\c99\common\doprnt.c: 1830:    vfpfcnvr
      +                          t(fp, &cfmt, ap);
  1123   0011C2  C014  F00A         	movff	vfprintf@fp,vfpfcnvrt@fp
  1124   0011C6  0E17               	movlw	low vfprintf@cfmt
  1125   0011C8  6E0B               	movwf	vfpfcnvrt@fmt^0,c
  1126   0011CA  C016  F00C         	movff	vfprintf@ap,vfpfcnvrt@ap
  1127   0011CE  ECCB  F004         	call	_vfpfcnvrt	;wreg free
  1128   0011D2                     l1667:
  1129                           
  1130                           ;C:\Program Files\Microchip\xc8\v3.10\pic\sources\c99\common\doprnt.c: 1826:     while (
      +                          *cfmt) {
  1131   0011D2  C017  FFF6         	movff	vfprintf@cfmt,tblptrl
  1132   0011D6                     	if	1	;There is more than 1 active tblptr byte
  1133   0011D6  0E08               	movlw	high __smallconst
  1134   0011D8  6EF7               	movwf	tblptrh,c
  1135   0011DA                     	endif
  1136   0011DA                     	if	0	;tblptru may be non-zero
  1137   0011DA                     	endif
  1138   0011DA                     	if	0	;tblptru may be non-zero
  1139   0011DA                     	endif
  1140   0011DA  0008               	tblrd		*
  1141   0011DC  50F5               	movf	tablat,w,c
  1142   0011DE  0900               	iorlw	0
  1143   0011E0  A4D8               	btfss	status,2,c
  1144   0011E2  EFF5  F008         	goto	u631
  1145   0011E6  EFF7  F008         	goto	u630
  1146   0011EA                     u631:
  1147   0011EA  EFE1  F008         	goto	l1665
  1148   0011EE                     u630:
  1149   0011EE                     
  1150                           ;C:\Program Files\Microchip\xc8\v3.10\pic\sources\c99\common\doprnt.c: 1835:  return 0;
  1151   0011EE  6A15               	clrf	(?_vfprintf+1)^0,c
  1152   0011F0  0E00               	movlw	0
  1153   0011F2  6E14               	movwf	?_vfprintf^0,c
  1154   0011F4  0012               	return		;funcret
  1155   0011F6                     __end_of_vfprintf:
  1156                           	callstack 0
  1157                           
  1158 ;; *************** function _vfpfcnvrt *****************
  1159 ;; Defined at:
  1160 ;;		line 1177 in file "C:\Program Files\Microchip\xc8\v3.10\pic\sources\c99\common\doprnt.c"
  1161 ;; Parameters:    Size  Location     Type
  1162 ;;  fp              1    8[COMRAM] PTR struct _IO_FILE
  1163 ;;		 -> sprintf@f(11), 
  1164 ;;  fmt             1    9[COMRAM] PTR PTR unsigned char 
  1165 ;;		 -> vfprintf@cfmt(1), 
  1166 ;;  ap              1   10[COMRAM] PTR PTR void 
  1167 ;;		 -> sprintf@ap(1), 
  1168 ;; Auto vars:     Size  Location     Type
  1169 ;;  convarg         4   12[COMRAM] struct .
  1170 ;;  c               1   17[COMRAM] unsigned char 
  1171 ;;  cp              1   16[COMRAM] PTR unsigned char 
  1172 ;;		 -> STR_1(3), 
  1173 ;;  done            1    0        _Bool 
  1174 ;; Return value:  Size  Location     Type
  1175 ;;                  1    wreg      void 
  1176 ;; Registers used:
  1177 ;;		wreg, fsr1l, fsr1h, fsr2l, fsr2h, status,2, status,0, tblptrl, tblptrh, tblptru, cstack
  1178 ;; Tracked objects:
  1179 ;;		On entry : 0/0
  1180 ;;		On exit  : 0/0
  1181 ;;		Unchanged: 0/0
  1182 ;; Data sizes:     COMRAM   BANK0   BANK1   BANK2   BANK3   BANK4   BANK5   BANK6   BANK7
  1183 ;;      Params:         3       0       0       0       0       0       0       0       0
  1184 ;;      Locals:         6       0       0       0       0       0       0       0       0
  1185 ;;      Temps:          1       0       0       0       0       0       0       0       0
  1186 ;;      Totals:        10       0       0       0       0       0       0       0       0
  1187 ;;Total ram usage:       10 bytes
  1188 ;; Hardware stack levels used: 1
  1189 ;; Hardware stack levels required when called: 3
  1190 ;; This function calls:
  1191 ;;		___lwdiv
  1192 ;;		___lwmod
  1193 ;;		_fputc
  1194 ;; This function is called by:
  1195 ;;		_vfprintf
  1196 ;; This function uses a non-reentrant model
  1197 ;;
  1198                           
  1199                           	psect	text3
  1200   000996                     __ptext3:
  1201                           	callstack 0
  1202   000996                     _vfpfcnvrt:
  1203                           	callstack 25
  1204   000996                     
  1205                           ;C:\Program Files\Microchip\xc8\v3.10\pic\sources\c99\common\doprnt.c: 1177: vfpfcnvrt(F
      +                          ILE *fp, char *fmt[], va_list ap);C:\Program Files\Microchip\xc8\v3.10\pic\sources\c99\c
      +                          ommon\doprnt.c: 1178: {;C:\Program Files\Microchip\xc8\v3.10\pic\sources\c99\common\dopr
      +                          nt.c: 1179:     char c, *cp;;C:\Program Files\Microchip\xc8\v3.10\pic\sources\c99\common
      +                          \doprnt.c: 1180:     _Bool done;;C:\Program Files\Microchip\xc8\v3.10\pic\sources\c99\co
      +                          mmon\doprnt.c: 1188:  } convarg;;C:\Program Files\Microchip\xc8\v3.10\pic\sources\c99\co
      +                          mmon\doprnt.c: 1201:     if ((*fmt)[0] == '%') {
  1206   000996  500B               	movf	vfpfcnvrt@fmt^0,w,c
  1207   000998  6ED9               	movwf	fsr2l,c
  1208   00099A  6ADA               	clrf	fsr2h,c
  1209   00099C  CFDF FFF6          	movff	indf2,tblptrl
  1210   0009A0                     	if	1	;There is more than 1 active tblptr byte
  1211   0009A0  0E08               	movlw	high __smallconst
  1212   0009A2  6EF7               	movwf	tblptrh,c
  1213   0009A4                     	endif
  1214   0009A4                     	if	0	;tblptru may be non-zero
  1215   0009A4                     	endif
  1216   0009A4                     	if	0	;tblptru may be non-zero
  1217   0009A4                     	endif
  1218   0009A4  0008               	tblrd		*
  1219   0009A6  50F5               	movf	tablat,w,c
  1220   0009A8  0A25               	xorlw	37
  1221   0009AA  A4D8               	btfss	status,2,c
  1222   0009AC  EFDA  F004         	goto	u581
  1223   0009B0  EFDC  F004         	goto	u580
  1224   0009B4                     u581:
  1225   0009B4  EF6B  F005         	goto	l1657
  1226   0009B8                     u580:
  1227   0009B8                     
  1228                           ;C:\Program Files\Microchip\xc8\v3.10\pic\sources\c99\common\doprnt.c: 1202:         ++*
      +                          fmt;
  1229   0009B8  500B               	movf	vfpfcnvrt@fmt^0,w,c
  1230   0009BA  6ED9               	movwf	fsr2l,c
  1231   0009BC  6ADA               	clrf	fsr2h,c
  1232   0009BE  2ADF               	incf	indf2,f,c
  1233   0009C0                     
  1234                           ;C:\Program Files\Microchip\xc8\v3.10\pic\sources\c99\common\doprnt.c: 1204:         fla
      +                          gs = width = 0;
  1235   0009C0  6A59               	clrf	(_width+1)^0,c
  1236   0009C2  0E00               	movlw	0
  1237   0009C4  6E58               	movwf	_width^0,c
  1238   0009C6  C058  F05C         	movff	_width,_flags
  1239   0009CA                     
  1240                           ;C:\Program Files\Microchip\xc8\v3.10\pic\sources\c99\common\doprnt.c: 1205:         pre
      +                          c = -1;
  1241   0009CA  685A               	setf	_prec^0,c
  1242   0009CC  685B               	setf	(_prec+1)^0,c
  1243   0009CE                     
  1244                           ;C:\Program Files\Microchip\xc8\v3.10\pic\sources\c99\common\doprnt.c: 1439:   if (0
  1245   0009CE  500B               	movf	vfpfcnvrt@fmt^0,w,c
  1246   0009D0  6ED9               	movwf	fsr2l,c
  1247   0009D2  6ADA               	clrf	fsr2h,c
  1248   0009D4  50DF               	movf	indf2,w,c
  1249   0009D6  6E12               	movwf	vfpfcnvrt@cp^0,c
  1250   0009D8  C012  FFF6         	movff	vfpfcnvrt@cp,tblptrl
  1251   0009DC                     	if	1	;There is more than 1 active tblptr byte
  1252   0009DC  0E08               	movlw	high __smallconst
  1253   0009DE  6EF7               	movwf	tblptrh,c
  1254   0009E0                     	endif
  1255   0009E0                     	if	0	;tblptru may be non-zero
  1256   0009E0                     	endif
  1257   0009E0                     	if	0	;tblptru may be non-zero
  1258   0009E0                     	endif
  1259   0009E0  0008               	tblrd		*
  1260   0009E2  50F5               	movf	tablat,w,c
  1261   0009E4  0A75               	xorlw	117
  1262   0009E6  A4D8               	btfss	status,2,c
  1263   0009E8  EFF8  F004         	goto	u591
  1264   0009EC  EFFA  F004         	goto	u590
  1265   0009F0                     u591:
  1266   0009F0  EF65  F005         	goto	l1653
  1267   0009F4                     u590:
  1268   0009F4                     
  1269                           ;C:\Program Files\Microchip\xc8\v3.10\pic\sources\c99\common\doprnt.c: 1452:     ) {;C:\
      +                          Program Files\Microchip\xc8\v3.10\pic\sources\c99\common\doprnt.c: 1495:    convarg.uint
      +                           = (vfpf_uint_t)(unsigned int)(*(unsigned int *)__va_arg(*(unsigned int **)ap, (unsigned
      +                           int)0));
  1270   0009F4  500C               	movf	vfpfcnvrt@ap^0,w,c
  1271   0009F6  6ED9               	movwf	fsr2l,c
  1272   0009F8  6ADA               	clrf	fsr2h,c
  1273   0009FA  0E02               	movlw	2
  1274   0009FC  26DF               	addwf	indf2,f,c
  1275   0009FE  5CDF               	subwf	indf2,w,c
  1276   000A00  6ED9               	movwf	fsr2l,c
  1277   000A02  6ADA               	clrf	fsr2h,c
  1278   000A04  CFDE F00E          	movff	postinc2,vfpfcnvrt@convarg
  1279   000A08  CFDE F00F          	movff	postinc2,vfpfcnvrt@convarg+1
  1280   000A0C                     
  1281                           ;C:\Program Files\Microchip\xc8\v3.10\pic\sources\c99\common\doprnt.c: 1497:    *fmt = c
      +                          p+1;
  1282   000A0C  500B               	movf	vfpfcnvrt@fmt^0,w,c
  1283   000A0E  6ED9               	movwf	fsr2l,c
  1284   000A10  6ADA               	clrf	fsr2h,c
  1285   000A12  2812               	incf	vfpfcnvrt@cp^0,w,c
  1286   000A14  6EDF               	movwf	indf2,c
  1287                           
  1288                           ;C:\Program Files\Microchip\xc8\v3.10\pic\sources\c99\common\doprnt.c: 1498:    switch (
      +                          *cp) {
  1289   000A16  EF59  F005         	goto	l1651
  1290   000A1A                     l1633:
  1291                           
  1292                           ;C:\Program Files\Microchip\xc8\v3.10\pic\sources\c99\common\doprnt.c: 1525:      c = si
      +                          zeof(dbuf);
  1293   000A1A  0E20               	movlw	32
  1294   000A1C  6E13               	movwf	vfpfcnvrt@c^0,c
  1295   000A1E                     l1635:
  1296                           
  1297                           ;C:\Program Files\Microchip\xc8\v3.10\pic\sources\c99\common\doprnt.c: 1527:       dbuf[
      +                          --c] = (convarg.uint % 10) + '0';
  1298   000A1E  0613               	decf	vfpfcnvrt@c^0,f,c
  1299   000A20  5013               	movf	vfpfcnvrt@c^0,w,c
  1300   000A22  0F38               	addlw	low _dbuf
  1301   000A24  6ED9               	movwf	fsr2l,c
  1302   000A26  6ADA               	clrf	fsr2h,c
  1303   000A28  C00E  F002         	movff	vfpfcnvrt@convarg,___lwmod@dividend
  1304   000A2C  C00F  F003         	movff	vfpfcnvrt@convarg+1,___lwmod@dividend+1
  1305   000A30  6A05               	clrf	(___lwmod@divisor+1)^0,c
  1306   000A32  0E0A               	movlw	10
  1307   000A34  6E04               	movwf	___lwmod@divisor^0,c
  1308   000A36  ECE1  F007         	call	___lwmod	;wreg free
  1309   000A3A  5002               	movf	?___lwmod^0,w,c
  1310   000A3C  0F30               	addlw	48
  1311   000A3E  6EDF               	movwf	indf2,c
  1312   000A40                     
  1313                           ;C:\Program Files\Microchip\xc8\v3.10\pic\sources\c99\common\doprnt.c: 1528:       conva
      +                          rg.uint /= 10;
  1314   000A40  C00E  F002         	movff	vfpfcnvrt@convarg,___lwdiv@dividend
  1315   000A44  C00F  F003         	movff	vfpfcnvrt@convarg+1,___lwdiv@dividend+1
  1316   000A48  6A05               	clrf	(___lwdiv@divisor+1)^0,c
  1317   000A4A  0E0A               	movlw	10
  1318   000A4C  6E04               	movwf	___lwdiv@divisor^0,c
  1319   000A4E  ECCE  F006         	call	___lwdiv	;wreg free
  1320   000A52  C002  F00E         	movff	?___lwdiv,vfpfcnvrt@convarg
  1321   000A56  C003  F00F         	movff	?___lwdiv+1,vfpfcnvrt@convarg+1
  1322   000A5A                     
  1323                           ;C:\Program Files\Microchip\xc8\v3.10\pic\sources\c99\common\doprnt.c: 1532:      } whil
      +                          e (convarg.uint != 0 && c != 0);
  1324   000A5A  500E               	movf	vfpfcnvrt@convarg^0,w,c
  1325   000A5C  100F               	iorwf	(vfpfcnvrt@convarg+1)^0,w,c
  1326   000A5E  B4D8               	btfsc	status,2,c
  1327   000A60  EF34  F005         	goto	u601
  1328   000A64  EF36  F005         	goto	u600
  1329   000A68                     u601:
  1330   000A68  EF4E  F005         	goto	l1647
  1331   000A6C                     u600:
  1332   000A6C  5013               	movf	vfpfcnvrt@c^0,w,c
  1333   000A6E  A4D8               	btfss	status,2,c
  1334   000A70  EF3C  F005         	goto	u611
  1335   000A74  EF3E  F005         	goto	u610
  1336   000A78                     u611:
  1337   000A78  EF0F  F005         	goto	l1635
  1338   000A7C                     u610:
  1339   000A7C  EF4E  F005         	goto	l1647
  1340   000A80                     l1643:
  1341                           
  1342                           ;C:\Program Files\Microchip\xc8\v3.10\pic\sources\c99\common\doprnt.c: 1534:       fputc
      +                          (dbuf[c++], fp);
  1343   000A80  5013               	movf	vfpfcnvrt@c^0,w,c
  1344   000A82  0F38               	addlw	low _dbuf
  1345   000A84  6ED9               	movwf	fsr2l,c
  1346   000A86  6ADA               	clrf	fsr2h,c
  1347   000A88  50DF               	movf	indf2,w,c
  1348   000A8A  6E0D               	movwf	??_vfpfcnvrt^0,c
  1349   000A8C  500D               	movf	??_vfpfcnvrt^0,w,c
  1350   000A8E  6E02               	movwf	fputc@c^0,c
  1351   000A90  6A03               	clrf	(fputc@c+1)^0,c
  1352   000A92  C00A  F004         	movff	vfpfcnvrt@fp,fputc@fp
  1353   000A96  EC79  F006         	call	_fputc	;wreg free
  1354   000A9A  2A13               	incf	vfpfcnvrt@c^0,f,c
  1355   000A9C                     l1647:
  1356                           
  1357                           ;C:\Program Files\Microchip\xc8\v3.10\pic\sources\c99\common\doprnt.c: 1533:      while 
      +                          (c != sizeof(dbuf)) {
  1358   000A9C  0E20               	movlw	32
  1359   000A9E  1813               	xorwf	vfpfcnvrt@c^0,w,c
  1360   000AA0  A4D8               	btfss	status,2,c
  1361   000AA2  EF55  F005         	goto	u621
  1362   000AA6  EF57  F005         	goto	u620
  1363   000AAA                     u621:
  1364   000AAA  EF40  F005         	goto	l1643
  1365   000AAE                     u620:
  1366   000AAE  EF7C  F005         	goto	l1011
  1367   000AB2                     l1651:
  1368   000AB2  C012  FFF6         	movff	vfpfcnvrt@cp,tblptrl
  1369   000AB6                     	if	1	;There is more than 1 active tblptr byte
  1370   000AB6  0E08               	movlw	high __smallconst
  1371   000AB8  6EF7               	movwf	tblptrh,c
  1372   000ABA                     	endif
  1373   000ABA                     	if	0	;tblptru may be non-zero
  1374   000ABA                     	endif
  1375   000ABA                     	if	0	;tblptru may be non-zero
  1376   000ABA                     	endif
  1377   000ABA  0008               	tblrd		*
  1378   000ABC  50F5               	movf	tablat,w,c
  1379                           
  1380                           ; Switch size 1, requested type "simple"
  1381                           ; Number of cases is 1, Range of values is 117 to 117
  1382                           ; switch strategies available:
  1383                           ; Name         Instructions Cycles
  1384                           ; simple_byte            4     3 (average)
  1385                           ;	Chosen strategy is simple_byte
  1386   000ABE  0A75               	xorlw	117	; case 117
  1387   000AC0  B4D8               	btfsc	status,2,c
  1388   000AC2  EF0D  F005         	goto	l1633
  1389   000AC6  EF65  F005         	goto	l1653
  1390   000ACA                     l1653:
  1391                           
  1392                           ;C:\Program Files\Microchip\xc8\v3.10\pic\sources\c99\common\doprnt.c: 1806:         ++*
      +                          fmt;
  1393   000ACA  500B               	movf	vfpfcnvrt@fmt^0,w,c
  1394   000ACC  6ED9               	movwf	fsr2l,c
  1395   000ACE  6ADA               	clrf	fsr2h,c
  1396   000AD0  2ADF               	incf	indf2,f,c
  1397   000AD2  EF7C  F005         	goto	l1011
  1398   000AD6                     l1657:
  1399                           
  1400                           ;C:\Program Files\Microchip\xc8\v3.10\pic\sources\c99\common\doprnt.c: 1811:     fputc((
      +                          int)(*fmt)[0], fp);
  1401   000AD6  500B               	movf	vfpfcnvrt@fmt^0,w,c
  1402   000AD8  6ED9               	movwf	fsr2l,c
  1403   000ADA  6ADA               	clrf	fsr2h,c
  1404   000ADC  CFDF FFF6          	movff	indf2,tblptrl
  1405   000AE0                     	if	1	;There is more than 1 active tblptr byte
  1406   000AE0  0E08               	movlw	high __smallconst
  1407   000AE2  6EF7               	movwf	tblptrh,c
  1408   000AE4                     	endif
  1409   000AE4                     	if	0	;tblptru may be non-zero
  1410   000AE4                     	endif
  1411   000AE4                     	if	0	;tblptru may be non-zero
  1412   000AE4                     	endif
  1413   000AE4  0008               	tblrd		*
  1414   000AE6  50F5               	movf	tablat,w,c
  1415   000AE8  6E02               	movwf	fputc@c^0,c
  1416   000AEA  6A03               	clrf	(fputc@c+1)^0,c
  1417   000AEC  C00A  F004         	movff	vfpfcnvrt@fp,fputc@fp
  1418   000AF0  EC79  F006         	call	_fputc	;wreg free
  1419   000AF4  EF65  F005         	goto	l1653
  1420   000AF8                     l1011:
  1421   000AF8  0012               	return		;funcret
  1422   000AFA                     __end_of_vfpfcnvrt:
  1423                           	callstack 0
  1424                           
  1425 ;; *************** function _fputc *****************
  1426 ;; Defined at:
  1427 ;;		line 8 in file "C:\Program Files\Microchip\xc8\v3.10\pic\sources\c99\common\nf_fputc.c"
  1428 ;; Parameters:    Size  Location     Type
  1429 ;;  c               2    0[COMRAM] int 
  1430 ;;  fp              1    2[COMRAM] PTR struct _IO_FILE
  1431 ;;		 -> sprintf@f(11), 
  1432 ;; Auto vars:     Size  Location     Type
  1433 ;;		None
  1434 ;; Return value:  Size  Location     Type
  1435 ;;                  2    0[COMRAM] int 
  1436 ;; Registers used:
  1437 ;;		wreg, fsr1l, fsr1h, fsr2l, fsr2h, status,2, status,0, cstack
  1438 ;; Tracked objects:
  1439 ;;		On entry : 0/0
  1440 ;;		On exit  : 0/0
  1441 ;;		Unchanged: 0/0
  1442 ;; Data sizes:     COMRAM   BANK0   BANK1   BANK2   BANK3   BANK4   BANK5   BANK6   BANK7
  1443 ;;      Params:         3       0       0       0       0       0       0       0       0
  1444 ;;      Locals:         0       0       0       0       0       0       0       0       0
  1445 ;;      Temps:          5       0       0       0       0       0       0       0       0
  1446 ;;      Totals:         8       0       0       0       0       0       0       0       0
  1447 ;;Total ram usage:        8 bytes
  1448 ;; Hardware stack levels used: 1
  1449 ;; Hardware stack levels required when called: 2
  1450 ;; This function calls:
  1451 ;;		_putch
  1452 ;; This function is called by:
  1453 ;;		_vfpfcnvrt
  1454 ;; This function uses a non-reentrant model
  1455 ;;
  1456                           
  1457                           	psect	text4
  1458   000CF2                     __ptext4:
  1459                           	callstack 0
  1460   000CF2                     _fputc:
  1461                           	callstack 25
  1462   000CF2  5004               	movf	fputc@fp^0,w,c
  1463   000CF4  B4D8               	btfsc	status,2,c
  1464   000CF6  EF7F  F006         	goto	u541
  1465   000CFA  EF81  F006         	goto	u540
  1466   000CFE                     u541:
  1467   000CFE  EF89  F006         	goto	l1607
  1468   000D02                     u540:
  1469   000D02  5004               	movf	fputc@fp^0,w,c
  1470   000D04  A4D8               	btfss	status,2,c
  1471   000D06  EF87  F006         	goto	u551
  1472   000D0A  EF89  F006         	goto	u550
  1473   000D0E                     u551:
  1474   000D0E  EF8E  F006         	goto	l1609
  1475   000D12                     u550:
  1476   000D12                     l1607:
  1477   000D12  5002               	movf	fputc@c^0,w,c
  1478   000D14  EC43  F009         	call	_putch
  1479   000D18  EFCD  F006         	goto	l1030
  1480   000D1C                     l1609:
  1481   000D1C  5004               	movf	fputc@fp^0,w,c
  1482   000D1E  6ED9               	movwf	fsr2l,c
  1483   000D20  6ADA               	clrf	fsr2h,c
  1484   000D22  0E09               	movlw	9
  1485   000D24  26D9               	addwf	fsr2l,f,c
  1486   000D26  50DE               	movf	postinc2,w,c
  1487   000D28  10DE               	iorwf	postinc2,w,c
  1488   000D2A  B4D8               	btfsc	status,2,c
  1489   000D2C  EF9A  F006         	goto	u561
  1490   000D30  EF9C  F006         	goto	u560
  1491   000D34                     u561:
  1492   000D34  EFB5  F006         	goto	l1613
  1493   000D38                     u560:
  1494   000D38  5004               	movf	fputc@fp^0,w,c
  1495   000D3A  6ED9               	movwf	fsr2l,c
  1496   000D3C  6ADA               	clrf	fsr2h,c
  1497   000D3E  0E09               	movlw	9
  1498   000D40  26D9               	addwf	fsr2l,f,c
  1499   000D42  5004               	movf	fputc@fp^0,w,c
  1500   000D44  6EE1               	movwf	fsr1l,c
  1501   000D46  6AE2               	clrf	fsr1h,c
  1502   000D48  0E02               	movlw	2
  1503   000D4A  26E1               	addwf	fsr1l,f,c
  1504   000D4C  50DE               	movf	postinc2,w,c
  1505   000D4E  5CE6               	subwf	postinc1,w,c
  1506   000D50  50E6               	movf	postinc1,w,c
  1507   000D52  0A80               	xorlw	128
  1508   000D54  6E09               	movwf	(??_fputc+4)^0,c
  1509   000D56  50DE               	movf	postinc2,w,c
  1510   000D58  0A80               	xorlw	128
  1511   000D5A  5809               	subwfb	(??_fputc+4)^0,w,c
  1512   000D5C  B0D8               	btfsc	status,0,c
  1513   000D5E  EFB3  F006         	goto	u571
  1514   000D62  EFB5  F006         	goto	u570
  1515   000D66                     u571:
  1516   000D66  EFCD  F006         	goto	l1030
  1517   000D6A                     u570:
  1518   000D6A                     l1613:
  1519   000D6A  5004               	movf	fputc@fp^0,w,c
  1520   000D6C  6ED9               	movwf	fsr2l,c
  1521   000D6E  6ADA               	clrf	fsr2h,c
  1522   000D70  0E02               	movlw	2
  1523   000D72  26D9               	addwf	fsr2l,f,c
  1524   000D74  50DF               	movf	indf2,w,c
  1525   000D76  6E05               	movwf	??_fputc^0,c
  1526   000D78  5004               	movf	fputc@fp^0,w,c
  1527   000D7A  6ED9               	movwf	fsr2l,c
  1528   000D7C  6ADA               	clrf	fsr2h,c
  1529   000D7E  50DF               	movf	indf2,w,c
  1530   000D80  2405               	addwf	??_fputc^0,w,c
  1531   000D82  6ED9               	movwf	fsr2l,c
  1532   000D84  6ADA               	clrf	fsr2h,c
  1533   000D86  C002  FFDF         	movff	fputc@c,indf2
  1534   000D8A  5004               	movf	fputc@fp^0,w,c
  1535   000D8C  6ED9               	movwf	fsr2l,c
  1536   000D8E  6ADA               	clrf	fsr2h,c
  1537   000D90  0E02               	movlw	2
  1538   000D92  26D9               	addwf	fsr2l,f,c
  1539   000D94  2ADE               	incf	postinc2,f,c
  1540   000D96  0E00               	movlw	0
  1541   000D98  22DD               	addwfc	postdec2,f,c
  1542   000D9A                     l1030:
  1543   000D9A  0012               	return		;funcret
  1544   000D9C                     __end_of_fputc:
  1545                           	callstack 0
  1546                           
  1547 ;; *************** function _putch *****************
  1548 ;; Defined at:
  1549 ;;		line 7 in file "C:\Program Files\Microchip\xc8\v3.10\pic\sources\c99\common\putch.c"
  1550 ;; Parameters:    Size  Location     Type
  1551 ;;  c               1    wreg     unsigned char 
  1552 ;; Auto vars:     Size  Location     Type
  1553 ;;  c               1    0[COMRAM] unsigned char 
  1554 ;; Return value:  Size  Location     Type
  1555 ;;                  1    wreg      void 
  1556 ;; Registers used:
  1557 ;;		wreg
  1558 ;; Tracked objects:
  1559 ;;		On entry : 0/0
  1560 ;;		On exit  : 0/0
  1561 ;;		Unchanged: 0/0
  1562 ;; Data sizes:     COMRAM   BANK0   BANK1   BANK2   BANK3   BANK4   BANK5   BANK6   BANK7
  1563 ;;      Params:         0       0       0       0       0       0       0       0       0
  1564 ;;      Locals:         0       0       0       0       0       0       0       0       0
  1565 ;;      Temps:          0       0       0       0       0       0       0       0       0
  1566 ;;      Totals:         0       0       0       0       0       0       0       0       0
  1567 ;;Total ram usage:        0 bytes
  1568 ;; Hardware stack levels used: 1
  1569 ;; Hardware stack levels required when called: 1
  1570 ;; This function calls:
  1571 ;;		Nothing
  1572 ;; This function is called by:
  1573 ;;		_fputc
  1574 ;; This function uses a non-reentrant model
  1575 ;;
  1576                           
  1577                           	psect	text5
  1578   001286                     __ptext5:
  1579                           	callstack 0
  1580   001286                     _putch:
  1581                           	callstack 25
  1582   001286  0012               	return		;funcret
  1583   001288                     __end_of_putch:
  1584                           	callstack 0
  1585                           
  1586 ;; *************** function ___lwmod *****************
  1587 ;; Defined at:
  1588 ;;		line 7 in file "C:\Program Files\Microchip\xc8\v3.10\pic\sources\c99\common\lwmod.c"
  1589 ;; Parameters:    Size  Location     Type
  1590 ;;  dividend        2    0[COMRAM] unsigned int 
  1591 ;;  divisor         2    2[COMRAM] unsigned int 
  1592 ;; Auto vars:     Size  Location     Type
  1593 ;;  counter         1    4[COMRAM] unsigned char 
  1594 ;; Return value:  Size  Location     Type
  1595 ;;                  2    0[COMRAM] unsigned int 
  1596 ;; Registers used:
  1597 ;;		wreg, status,2, status,0
  1598 ;; Tracked objects:
  1599 ;;		On entry : 0/0
  1600 ;;		On exit  : 0/0
  1601 ;;		Unchanged: 0/0
  1602 ;; Data sizes:     COMRAM   BANK0   BANK1   BANK2   BANK3   BANK4   BANK5   BANK6   BANK7
  1603 ;;      Params:         4       0       0       0       0       0       0       0       0
  1604 ;;      Locals:         1       0       0       0       0       0       0       0       0
  1605 ;;      Temps:          0       0       0       0       0       0       0       0       0
  1606 ;;      Totals:         5       0       0       0       0       0       0       0       0
  1607 ;;Total ram usage:        5 bytes
  1608 ;; Hardware stack levels used: 1
  1609 ;; Hardware stack levels required when called: 1
  1610 ;; This function calls:
  1611 ;;		Nothing
  1612 ;; This function is called by:
  1613 ;;		_vfpfcnvrt
  1614 ;; This function uses a non-reentrant model
  1615 ;;
  1616                           
  1617                           	psect	text6
  1618   000FC2                     __ptext6:
  1619                           	callstack 0
  1620   000FC2                     ___lwmod:
  1621                           	callstack 26
  1622   000FC2  5004               	movf	___lwmod@divisor^0,w,c
  1623   000FC4  1005               	iorwf	(___lwmod@divisor+1)^0,w,c
  1624   000FC6  B4D8               	btfsc	status,2,c
  1625   000FC8  EFE8  F007         	goto	u511
  1626   000FCC  EFEA  F007         	goto	u510
  1627   000FD0                     u511:
  1628   000FD0  EF0E  F008         	goto	l797
  1629   000FD4                     u510:
  1630   000FD4  0E01               	movlw	1
  1631   000FD6  6E06               	movwf	___lwmod@counter^0,c
  1632   000FD8  EFF2  F007         	goto	l1593
  1633   000FDC                     l1591:
  1634   000FDC  90D8               	bcf	status,0,c
  1635   000FDE  3604               	rlcf	___lwmod@divisor^0,f,c
  1636   000FE0  3605               	rlcf	(___lwmod@divisor+1)^0,f,c
  1637   000FE2  2A06               	incf	___lwmod@counter^0,f,c
  1638   000FE4                     l1593:
  1639   000FE4  AE05               	btfss	(___lwmod@divisor+1)^0,7,c
  1640   000FE6  EFF7  F007         	goto	u521
  1641   000FEA  EFF9  F007         	goto	u520
  1642   000FEE                     u521:
  1643   000FEE  EFEE  F007         	goto	l1591
  1644   000FF2                     u520:
  1645   000FF2                     l1595:
  1646   000FF2  5004               	movf	___lwmod@divisor^0,w,c
  1647   000FF4  5C02               	subwf	___lwmod@dividend^0,w,c
  1648   000FF6  5005               	movf	(___lwmod@divisor+1)^0,w,c
  1649   000FF8  5803               	subwfb	(___lwmod@dividend+1)^0,w,c
  1650   000FFA  A0D8               	btfss	status,0,c
  1651   000FFC  EF02  F008         	goto	u531
  1652   001000  EF04  F008         	goto	u530
  1653   001004                     u531:
  1654   001004  EF08  F008         	goto	l1599
  1655   001008                     u530:
  1656   001008  5004               	movf	___lwmod@divisor^0,w,c
  1657   00100A  5E02               	subwf	___lwmod@dividend^0,f,c
  1658   00100C  5005               	movf	(___lwmod@divisor+1)^0,w,c
  1659   00100E  5A03               	subwfb	(___lwmod@dividend+1)^0,f,c
  1660   001010                     l1599:
  1661   001010  90D8               	bcf	status,0,c
  1662   001012  3205               	rrcf	(___lwmod@divisor+1)^0,f,c
  1663   001014  3204               	rrcf	___lwmod@divisor^0,f,c
  1664   001016  2E06               	decfsz	___lwmod@counter^0,f,c
  1665   001018  EFF9  F007         	goto	l1595
  1666   00101C                     l797:
  1667   00101C  C002  F002         	movff	___lwmod@dividend,?___lwmod
  1668   001020  C003  F003         	movff	___lwmod@dividend+1,?___lwmod+1
  1669   001024  0012               	return		;funcret
  1670   001026                     __end_of___lwmod:
  1671                           	callstack 0
  1672                           
  1673 ;; *************** function ___lwdiv *****************
  1674 ;; Defined at:
  1675 ;;		line 7 in file "C:\Program Files\Microchip\xc8\v3.10\pic\sources\c99\common\lwdiv.c"
  1676 ;; Parameters:    Size  Location     Type
  1677 ;;  dividend        2    0[COMRAM] unsigned int 
  1678 ;;  divisor         2    2[COMRAM] unsigned int 
  1679 ;; Auto vars:     Size  Location     Type
  1680 ;;  quotient        2    4[COMRAM] unsigned int 
  1681 ;;  counter         1    6[COMRAM] unsigned char 
  1682 ;; Return value:  Size  Location     Type
  1683 ;;                  2    0[COMRAM] unsigned int 
  1684 ;; Registers used:
  1685 ;;		wreg, status,2, status,0
  1686 ;; Tracked objects:
  1687 ;;		On entry : 0/0
  1688 ;;		On exit  : 0/0
  1689 ;;		Unchanged: 0/0
  1690 ;; Data sizes:     COMRAM   BANK0   BANK1   BANK2   BANK3   BANK4   BANK5   BANK6   BANK7
  1691 ;;      Params:         4       0       0       0       0       0       0       0       0
  1692 ;;      Locals:         3       0       0       0       0       0       0       0       0
  1693 ;;      Temps:          0       0       0       0       0       0       0       0       0
  1694 ;;      Totals:         7       0       0       0       0       0       0       0       0
  1695 ;;Total ram usage:        7 bytes
  1696 ;; Hardware stack levels used: 1
  1697 ;; Hardware stack levels required when called: 1
  1698 ;; This function calls:
  1699 ;;		Nothing
  1700 ;; This function is called by:
  1701 ;;		_vfpfcnvrt
  1702 ;; This function uses a non-reentrant model
  1703 ;;
  1704                           
  1705                           	psect	text7
  1706   000D9C                     __ptext7:
  1707                           	callstack 0
  1708   000D9C                     ___lwdiv:
  1709                           	callstack 26
  1710   000D9C  6A07               	clrf	(___lwdiv@quotient+1)^0,c
  1711   000D9E  0E00               	movlw	0
  1712   000DA0  6E06               	movwf	___lwdiv@quotient^0,c
  1713   000DA2  5004               	movf	___lwdiv@divisor^0,w,c
  1714   000DA4  1005               	iorwf	(___lwdiv@divisor+1)^0,w,c
  1715   000DA6  B4D8               	btfsc	status,2,c
  1716   000DA8  EFD8  F006         	goto	u481
  1717   000DAC  EFDA  F006         	goto	u480
  1718   000DB0                     u481:
  1719   000DB0  EF02  F007         	goto	l787
  1720   000DB4                     u480:
  1721   000DB4  0E01               	movlw	1
  1722   000DB6  6E08               	movwf	___lwdiv@counter^0,c
  1723   000DB8  EFE2  F006         	goto	l1573
  1724   000DBC                     l1571:
  1725   000DBC  90D8               	bcf	status,0,c
  1726   000DBE  3604               	rlcf	___lwdiv@divisor^0,f,c
  1727   000DC0  3605               	rlcf	(___lwdiv@divisor+1)^0,f,c
  1728   000DC2  2A08               	incf	___lwdiv@counter^0,f,c
  1729   000DC4                     l1573:
  1730   000DC4  AE05               	btfss	(___lwdiv@divisor+1)^0,7,c
  1731   000DC6  EFE7  F006         	goto	u491
  1732   000DCA  EFE9  F006         	goto	u490
  1733   000DCE                     u491:
  1734   000DCE  EFDE  F006         	goto	l1571
  1735   000DD2                     u490:
  1736   000DD2                     l1575:
  1737   000DD2  90D8               	bcf	status,0,c
  1738   000DD4  3606               	rlcf	___lwdiv@quotient^0,f,c
  1739   000DD6  3607               	rlcf	(___lwdiv@quotient+1)^0,f,c
  1740   000DD8  5004               	movf	___lwdiv@divisor^0,w,c
  1741   000DDA  5C02               	subwf	___lwdiv@dividend^0,w,c
  1742   000DDC  5005               	movf	(___lwdiv@divisor+1)^0,w,c
  1743   000DDE  5803               	subwfb	(___lwdiv@dividend+1)^0,w,c
  1744   000DE0  A0D8               	btfss	status,0,c
  1745   000DE2  EFF5  F006         	goto	u501
  1746   000DE6  EFF7  F006         	goto	u500
  1747   000DEA                     u501:
  1748   000DEA  EFFC  F006         	goto	l1583
  1749   000DEE                     u500:
  1750   000DEE  5004               	movf	___lwdiv@divisor^0,w,c
  1751   000DF0  5E02               	subwf	___lwdiv@dividend^0,f,c
  1752   000DF2  5005               	movf	(___lwdiv@divisor+1)^0,w,c
  1753   000DF4  5A03               	subwfb	(___lwdiv@dividend+1)^0,f,c
  1754   000DF6  8006               	bsf	___lwdiv@quotient^0,0,c
  1755   000DF8                     l1583:
  1756   000DF8  90D8               	bcf	status,0,c
  1757   000DFA  3205               	rrcf	(___lwdiv@divisor+1)^0,f,c
  1758   000DFC  3204               	rrcf	___lwdiv@divisor^0,f,c
  1759   000DFE  2E08               	decfsz	___lwdiv@counter^0,f,c
  1760   000E00  EFE9  F006         	goto	l1575
  1761   000E04                     l787:
  1762   000E04  C006  F002         	movff	___lwdiv@quotient,?___lwdiv
  1763   000E08  C007  F003         	movff	___lwdiv@quotient+1,?___lwdiv+1
  1764   000E0C  0012               	return		;funcret
  1765   000E0E                     __end_of___lwdiv:
  1766                           	callstack 0
  1767                           
  1768 ;; *************** function _putsXLCD *****************
  1769 ;; Defined at:
  1770 ;;		line 510 in file "nxlcd.c"
  1771 ;; Parameters:    Size  Location     Type
  1772 ;;  buffer          2    1[COMRAM] PTR unsigned char 
  1773 ;;		 -> STR_2(6), main@temp_str(6), 
  1774 ;; Auto vars:     Size  Location     Type
  1775 ;;		None
  1776 ;; Return value:  Size  Location     Type
  1777 ;;                  1    wreg      void 
  1778 ;; Registers used:
  1779 ;;		wreg, fsr1l, fsr1h, status,2, status,0, tblptrl, tblptrh, tblptru, cstack
  1780 ;; Tracked objects:
  1781 ;;		On entry : 0/0
  1782 ;;		On exit  : 0/0
  1783 ;;		Unchanged: 0/0
  1784 ;; Data sizes:     COMRAM   BANK0   BANK1   BANK2   BANK3   BANK4   BANK5   BANK6   BANK7
  1785 ;;      Params:         2       0       0       0       0       0       0       0       0
  1786 ;;      Locals:         0       0       0       0       0       0       0       0       0
  1787 ;;      Temps:          0       0       0       0       0       0       0       0       0
  1788 ;;      Totals:         2       0       0       0       0       0       0       0       0
  1789 ;;Total ram usage:        2 bytes
  1790 ;; Hardware stack levels used: 1
  1791 ;; Hardware stack levels required when called: 2
  1792 ;; This function calls:
  1793 ;;		_BusyXLCD
  1794 ;;		_WriteDataXLCD
  1795 ;; This function is called by:
  1796 ;;		_main
  1797 ;; This function uses a non-reentrant model
  1798 ;;
  1799                           
  1800                           	psect	text8
  1801   000E0E                     __ptext8:
  1802                           	callstack 0
  1803   000E0E                     _putsXLCD:
  1804                           	callstack 28
  1805   000E0E                     
  1806                           ;nxlcd.c: 510: void putsXLCD(char *buffer);nxlcd.c: 511: {;nxlcd.c: 512:         while(*
      +                          buffer)
  1807   000E0E  EF27  F007         	goto	l1703
  1808   000E12                     l1697:
  1809   000E12  EC5C  F008         	call	_BusyXLCD	;wreg free
  1810   000E16  0900               	iorlw	0
  1811   000E18  A4D8               	btfss	status,2,c
  1812   000E1A  EF11  F007         	goto	u681
  1813   000E1E  EF13  F007         	goto	u680
  1814   000E22                     u681:
  1815   000E22  EF09  F007         	goto	l1697
  1816   000E26                     u680:
  1817   000E26                     
  1818                           ;nxlcd.c: 515:                 WriteDataXLCD(*buffer);
  1819   000E26  C003  FFF6         	movff	putsXLCD@buffer,tblptrl
  1820   000E2A  C004  FFF7         	movff	putsXLCD@buffer+1,tblptrh
  1821   000E2E  6AF8               	clrf	tblptru,c
  1822   000E30  0E07               	movlw	(high __ramtop+-1)
  1823   000E32  64F7               	cpfsgt	tblptrh,c
  1824   000E34  D003               	bra	u697
  1825   000E36  0008               	tblrd		*
  1826   000E38  50F5               	movf	tablat,w,c
  1827   000E3A  D005               	bra	u690
  1828   000E3C                     u697:
  1829   000E3C  CFF6 FFE1          	movff	tblptrl,fsr1l
  1830   000E40  CFF7 FFE2          	movff	tblptrh,fsr1h
  1831   000E44  50E7               	movf	indf1,w,c
  1832   000E46                     u690:
  1833   000E46  EC9F  F008         	call	_WriteDataXLCD
  1834   000E4A                     
  1835                           ;nxlcd.c: 516:                 buffer++;
  1836   000E4A  4A03               	infsnz	putsXLCD@buffer^0,f,c
  1837   000E4C  2A04               	incf	(putsXLCD@buffer+1)^0,f,c
  1838   000E4E                     l1703:
  1839                           
  1840                           ;nxlcd.c: 512:         while(*buffer)
  1841   000E4E  C003  FFF6         	movff	putsXLCD@buffer,tblptrl
  1842   000E52  C004  FFF7         	movff	putsXLCD@buffer+1,tblptrh
  1843   000E56  6AF8               	clrf	tblptru,c
  1844   000E58  0E07               	movlw	(high __ramtop+-1)
  1845   000E5A  64F7               	cpfsgt	tblptrh,c
  1846   000E5C  D003               	bra	u707
  1847   000E5E  0008               	tblrd		*
  1848   000E60  50F5               	movf	tablat,w,c
  1849   000E62  D005               	bra	u700
  1850   000E64                     u707:
  1851   000E64  CFF6 FFE1          	movff	tblptrl,fsr1l
  1852   000E68  CFF7 FFE2          	movff	tblptrh,fsr1h
  1853   000E6C  50E7               	movf	indf1,w,c
  1854   000E6E                     u700:
  1855   000E6E  0900               	iorlw	0
  1856   000E70  A4D8               	btfss	status,2,c
  1857   000E72  EF3D  F007         	goto	u711
  1858   000E76  EF3F  F007         	goto	u710
  1859   000E7A                     u711:
  1860   000E7A  EF09  F007         	goto	l1697
  1861   000E7E                     u710:
  1862   000E7E  0012               	return		;funcret
  1863   000E80                     __end_of_putsXLCD:
  1864                           	callstack 0
  1865                           
  1866 ;; *************** function _putrsXLCD *****************
  1867 ;; Defined at:
  1868 ;;		line 533 in file "nxlcd.c"
  1869 ;; Parameters:    Size  Location     Type
  1870 ;;  buffer          1    1[COMRAM] PTR const unsigned char 
  1871 ;;		 -> STR_3(3), 
  1872 ;; Auto vars:     Size  Location     Type
  1873 ;;		None
  1874 ;; Return value:  Size  Location     Type
  1875 ;;                  1    wreg      void 
  1876 ;; Registers used:
  1877 ;;		wreg, status,2, status,0, tblptrl, tblptrh, tblptru, cstack
  1878 ;; Tracked objects:
  1879 ;;		On entry : 0/0
  1880 ;;		On exit  : 0/0
  1881 ;;		Unchanged: 0/0
  1882 ;; Data sizes:     COMRAM   BANK0   BANK1   BANK2   BANK3   BANK4   BANK5   BANK6   BANK7
  1883 ;;      Params:         1       0       0       0       0       0       0       0       0
  1884 ;;      Locals:         0       0       0       0       0       0       0       0       0
  1885 ;;      Temps:          0       0       0       0       0       0       0       0       0
  1886 ;;      Totals:         1       0       0       0       0       0       0       0       0
  1887 ;;Total ram usage:        1 bytes
  1888 ;; Hardware stack levels used: 1
  1889 ;; Hardware stack levels required when called: 3
  1890 ;; This function calls:
  1891 ;;		_BusyXLCD
  1892 ;;		_WriteDataXLCD
  1893 ;; This function is called by:
  1894 ;;		_main
  1895 ;; This function uses a non-reentrant model
  1896 ;;
  1897                           
  1898                           	psect	text9
  1899   001070                     __ptext9:
  1900                           	callstack 0
  1901   001070                     _putrsXLCD:
  1902                           	callstack 27
  1903   001070                     
  1904                           ;nxlcd.c: 533: void putrsXLCD(const char *buffer);nxlcd.c: 534: {;nxlcd.c: 535:         
      +                          while(*buffer)
  1905   001070  EF4D  F008         	goto	l1713
  1906   001074                     l1707:
  1907   001074  EC5C  F008         	call	_BusyXLCD	;wreg free
  1908   001078  0900               	iorlw	0
  1909   00107A  A4D8               	btfss	status,2,c
  1910   00107C  EF42  F008         	goto	u721
  1911   001080  EF44  F008         	goto	u720
  1912   001084                     u721:
  1913   001084  EF3A  F008         	goto	l1707
  1914   001088                     u720:
  1915   001088                     
  1916                           ;nxlcd.c: 538:                 WriteDataXLCD(*buffer);
  1917   001088  C003  FFF6         	movff	putrsXLCD@buffer,tblptrl
  1918   00108C                     	if	1	;There is more than 1 active tblptr byte
  1919   00108C  0E08               	movlw	high __smallconst
  1920   00108E  6EF7               	movwf	tblptrh,c
  1921   001090                     	endif
  1922   001090                     	if	0	;tblptru may be non-zero
  1923   001090                     	endif
  1924   001090                     	if	0	;tblptru may be non-zero
  1925   001090                     	endif
  1926   001090  0008               	tblrd		*
  1927   001092  50F5               	movf	tablat,w,c
  1928   001094  EC9F  F008         	call	_WriteDataXLCD
  1929   001098                     
  1930                           ;nxlcd.c: 539:                 buffer++;
  1931   001098  2A03               	incf	putrsXLCD@buffer^0,f,c
  1932   00109A                     l1713:
  1933                           
  1934                           ;nxlcd.c: 535:         while(*buffer)
  1935   00109A  C003  FFF6         	movff	putrsXLCD@buffer,tblptrl
  1936   00109E                     	if	1	;There is more than 1 active tblptr byte
  1937   00109E  0E08               	movlw	high __smallconst
  1938   0010A0  6EF7               	movwf	tblptrh,c
  1939   0010A2                     	endif
  1940   0010A2                     	if	0	;tblptru may be non-zero
  1941   0010A2                     	endif
  1942   0010A2                     	if	0	;tblptru may be non-zero
  1943   0010A2                     	endif
  1944   0010A2  0008               	tblrd		*
  1945   0010A4  50F5               	movf	tablat,w,c
  1946   0010A6  0900               	iorlw	0
  1947   0010A8  A4D8               	btfss	status,2,c
  1948   0010AA  EF59  F008         	goto	u731
  1949   0010AE  EF5B  F008         	goto	u730
  1950   0010B2                     u731:
  1951   0010B2  EF3A  F008         	goto	l1707
  1952   0010B6                     u730:
  1953   0010B6  0012               	return		;funcret
  1954   0010B8                     __end_of_putrsXLCD:
  1955                           	callstack 0
  1956                           
  1957 ;; *************** function _WriteDataXLCD *****************
  1958 ;; Defined at:
  1959 ;;		line 449 in file "nxlcd.c"
  1960 ;; Parameters:    Size  Location     Type
  1961 ;;  data            1    wreg     unsigned char 
  1962 ;; Auto vars:     Size  Location     Type
  1963 ;;  data            1    0[COMRAM] unsigned char 
  1964 ;; Return value:  Size  Location     Type
  1965 ;;                  1    wreg      void 
  1966 ;; Registers used:
  1967 ;;		wreg, status,2, status,0, cstack
  1968 ;; Tracked objects:
  1969 ;;		On entry : 0/0
  1970 ;;		On exit  : 0/0
  1971 ;;		Unchanged: 0/0
  1972 ;; Data sizes:     COMRAM   BANK0   BANK1   BANK2   BANK3   BANK4   BANK5   BANK6   BANK7
  1973 ;;      Params:         0       0       0       0       0       0       0       0       0
  1974 ;;      Locals:         1       0       0       0       0       0       0       0       0
  1975 ;;      Temps:          0       0       0       0       0       0       0       0       0
  1976 ;;      Totals:         1       0       0       0       0       0       0       0       0
  1977 ;;Total ram usage:        1 bytes
  1978 ;; Hardware stack levels used: 1
  1979 ;; Hardware stack levels required when called: 1
  1980 ;; This function calls:
  1981 ;;		_DelayFor18TCY
  1982 ;; This function is called by:
  1983 ;;		_putsXLCD
  1984 ;;		_putrsXLCD
  1985 ;; This function uses a non-reentrant model
  1986 ;;
  1987                           
  1988                           	psect	text10
  1989   00113E                     __ptext10:
  1990                           	callstack 0
  1991   00113E                     _WriteDataXLCD:
  1992                           	callstack 28
  1993                           
  1994                           ;incstack = 0
  1995                           ;WriteDataXLCD@data stored from wreg
  1996   00113E  6E02               	movwf	WriteDataXLCD@data^0,c
  1997   001140                     
  1998                           ;nxlcd.c: 449: void WriteDataXLCD(char data);nxlcd.c: 450: {;nxlcd.c: 464:         TRISD
      +                           &= 0x0f;
  1999   001140  0E0F               	movlw	15
  2000   001142  1695               	andwf	149,f,c	;volatile
  2001                           
  2002                           ;nxlcd.c: 465:         PORTD &= 0x0f;
  2003   001144  0E0F               	movlw	15
  2004   001146  1683               	andwf	131,f,c	;volatile
  2005                           
  2006                           ;nxlcd.c: 466:         PORTD |= data&0xf0;
  2007   001148  5002               	movf	WriteDataXLCD@data^0,w,c
  2008   00114A  0BF0               	andlw	240
  2009   00114C  1283               	iorwf	131,f,c	;volatile
  2010   00114E                     
  2011                           ;nxlcd.c: 472:         LATEbits.LATE0 = 1;
  2012   00114E  808D               	bsf	141,0,c	;volatile
  2013   001150                     
  2014                           ;nxlcd.c: 473:         LATEbits.LATE2 = 0;
  2015   001150  948D               	bcf	141,2,c	;volatile
  2016   001152                     
  2017                           ;nxlcd.c: 474:         DelayFor18TCY();
  2018   001152  EC3D  F009         	call	_DelayFor18TCY	;wreg free
  2019   001156                     
  2020                           ;nxlcd.c: 475:         LATEbits.LATE1 = 1;
  2021   001156  828D               	bsf	141,1,c	;volatile
  2022   001158                     
  2023                           ;nxlcd.c: 476:         DelayFor18TCY();
  2024   001158  EC3D  F009         	call	_DelayFor18TCY	;wreg free
  2025   00115C                     
  2026                           ;nxlcd.c: 477:         LATEbits.LATE1 = 0;
  2027   00115C  928D               	bcf	141,1,c	;volatile
  2028                           
  2029                           ;nxlcd.c: 479:         PORTD &= 0x0f;
  2030   00115E  0E0F               	movlw	15
  2031   001160  1683               	andwf	131,f,c	;volatile
  2032                           
  2033                           ;nxlcd.c: 480:         PORTD |= ((data<<4)&0xf0);
  2034   001162  3802               	swapf	WriteDataXLCD@data^0,w,c
  2035   001164  0BF0               	andlw	240
  2036   001166  0BF0               	andlw	240
  2037   001168  1283               	iorwf	131,f,c	;volatile
  2038   00116A                     
  2039                           ;nxlcd.c: 485:         DelayFor18TCY();
  2040   00116A  EC3D  F009         	call	_DelayFor18TCY	;wreg free
  2041   00116E                     
  2042                           ;nxlcd.c: 486:         LATEbits.LATE1 = 1;
  2043   00116E  828D               	bsf	141,1,c	;volatile
  2044   001170                     
  2045                           ;nxlcd.c: 487:         DelayFor18TCY();
  2046   001170  EC3D  F009         	call	_DelayFor18TCY	;wreg free
  2047   001174                     
  2048                           ;nxlcd.c: 488:         LATEbits.LATE1 = 0;
  2049   001174  928D               	bcf	141,1,c	;volatile
  2050                           
  2051                           ;nxlcd.c: 490:         TRISD |= 0xf0;
  2052   001176  0EF0               	movlw	240
  2053   001178  1295               	iorwf	149,f,c	;volatile
  2054   00117A  0012               	return		;funcret
  2055   00117C                     __end_of_WriteDataXLCD:
  2056                           	callstack 0
  2057                           
  2058 ;; *************** function _ajusta_dc *****************
  2059 ;; Defined at:
  2060 ;;		line 92 in file "ex_ad.c"
  2061 ;; Parameters:    Size  Location     Type
  2062 ;;  dc              2    0[COMRAM] unsigned int 
  2063 ;; Auto vars:     Size  Location     Type
  2064 ;;		None
  2065 ;; Return value:  Size  Location     Type
  2066 ;;                  1    wreg      void 
  2067 ;; Registers used:
  2068 ;;		wreg, status,2, status,0
  2069 ;; Tracked objects:
  2070 ;;		On entry : 0/0
  2071 ;;		On exit  : 0/0
  2072 ;;		Unchanged: 0/0
  2073 ;; Data sizes:     COMRAM   BANK0   BANK1   BANK2   BANK3   BANK4   BANK5   BANK6   BANK7
  2074 ;;      Params:         2       0       0       0       0       0       0       0       0
  2075 ;;      Locals:         0       0       0       0       0       0       0       0       0
  2076 ;;      Temps:          2       0       0       0       0       0       0       0       0
  2077 ;;      Totals:         4       0       0       0       0       0       0       0       0
  2078 ;;Total ram usage:        4 bytes
  2079 ;; Hardware stack levels used: 1
  2080 ;; Hardware stack levels required when called: 1
  2081 ;; This function calls:
  2082 ;;		Nothing
  2083 ;; This function is called by:
  2084 ;;		_main
  2085 ;; This function uses a non-reentrant model
  2086 ;;
  2087                           
  2088                           	psect	text11
  2089   001026                     __ptext11:
  2090                           	callstack 0
  2091   001026                     _ajusta_dc:
  2092                           	callstack 29
  2093   001026  C002  F004         	movff	ajusta_dc@dc,??_ajusta_dc
  2094   00102A  C003  F005         	movff	ajusta_dc@dc+1,??_ajusta_dc+1
  2095   00102E  90D8               	bcf	status,0,c
  2096   001030  3205               	rrcf	(??_ajusta_dc+1)^0,f,c
  2097   001032  3204               	rrcf	??_ajusta_dc^0,f,c
  2098   001034  90D8               	bcf	status,0,c
  2099   001036  3205               	rrcf	(??_ajusta_dc+1)^0,f,c
  2100   001038  3204               	rrcf	??_ajusta_dc^0,f,c
  2101   00103A  5004               	movf	??_ajusta_dc^0,w,c
  2102   00103C  6EBB               	movwf	187,c	;volatile
  2103   00103E  90D8               	bcf	status,0,c
  2104   001040  3003               	rrcf	(ajusta_dc@dc+1)^0,w,c
  2105   001042  6E05               	movwf	(??_ajusta_dc+1)^0,c
  2106   001044  3002               	rrcf	ajusta_dc@dc^0,w,c
  2107   001046  6E04               	movwf	??_ajusta_dc^0,c
  2108   001048  0E01               	movlw	1
  2109   00104A  1604               	andwf	??_ajusta_dc^0,f,c
  2110   00104C  3A04               	swapf	??_ajusta_dc^0,f,c
  2111   00104E  4604               	rlncf	??_ajusta_dc^0,f,c
  2112   001050  50BA               	movf	186,w,c	;volatile
  2113   001052  1804               	xorwf	??_ajusta_dc^0,w,c
  2114   001054  0BDF               	andlw	-33
  2115   001056  1804               	xorwf	??_ajusta_dc^0,w,c
  2116   001058  6EBA               	movwf	186,c	;volatile
  2117   00105A  C002  F004         	movff	ajusta_dc@dc,??_ajusta_dc
  2118   00105E  0E01               	movlw	1
  2119   001060  1604               	andwf	??_ajusta_dc^0,f,c
  2120   001062  3A04               	swapf	??_ajusta_dc^0,f,c
  2121   001064  50BA               	movf	186,w,c	;volatile
  2122   001066  1804               	xorwf	??_ajusta_dc^0,w,c
  2123   001068  0BEF               	andlw	-17
  2124   00106A  1804               	xorwf	??_ajusta_dc^0,w,c
  2125   00106C  6EBA               	movwf	186,c	;volatile
  2126   00106E  0012               	return		;funcret
  2127   001070                     __end_of_ajusta_dc:
  2128                           	callstack 0
  2129                           
  2130 ;; *************** function ___lmul *****************
  2131 ;; Defined at:
  2132 ;;		line 15 in file "C:\Program Files\Microchip\xc8\v3.10\pic\sources\c99\common\Umul32.c"
  2133 ;; Parameters:    Size  Location     Type
  2134 ;;  multiplier      4    0[COMRAM] unsigned long 
  2135 ;;  multiplicand    4    4[COMRAM] unsigned long 
  2136 ;; Auto vars:     Size  Location     Type
  2137 ;;  product         4    8[COMRAM] unsigned long 
  2138 ;; Return value:  Size  Location     Type
  2139 ;;                  4    0[COMRAM] unsigned long 
  2140 ;; Registers used:
  2141 ;;		wreg, status,2, status,0
  2142 ;; Tracked objects:
  2143 ;;		On entry : 0/0
  2144 ;;		On exit  : 0/0
  2145 ;;		Unchanged: 0/0
  2146 ;; Data sizes:     COMRAM   BANK0   BANK1   BANK2   BANK3   BANK4   BANK5   BANK6   BANK7
  2147 ;;      Params:         8       0       0       0       0       0       0       0       0
  2148 ;;      Locals:         4       0       0       0       0       0       0       0       0
  2149 ;;      Temps:          0       0       0       0       0       0       0       0       0
  2150 ;;      Totals:        12       0       0       0       0       0       0       0       0
  2151 ;;Total ram usage:       12 bytes
  2152 ;; Hardware stack levels used: 1
  2153 ;; Hardware stack levels required when called: 1
  2154 ;; This function calls:
  2155 ;;		Nothing
  2156 ;; This function is called by:
  2157 ;;		_main
  2158 ;; This function uses a non-reentrant model
  2159 ;;
  2160                           
  2161                           	psect	text12
  2162   000EEE                     __ptext12:
  2163                           	callstack 0
  2164   000EEE                     ___lmul:
  2165                           	callstack 29
  2166   000EEE  0E00               	movlw	0
  2167   000EF0  6E0A               	movwf	___lmul@product^0,c
  2168   000EF2  0E00               	movlw	0
  2169   000EF4  6E0B               	movwf	(___lmul@product+1)^0,c
  2170   000EF6  0E00               	movlw	0
  2171   000EF8  6E0C               	movwf	(___lmul@product+2)^0,c
  2172   000EFA  0E00               	movlw	0
  2173   000EFC  6E0D               	movwf	(___lmul@product+3)^0,c
  2174   000EFE                     l1717:
  2175   000EFE  A002               	btfss	___lmul@multiplier^0,0,c
  2176   000F00  EF84  F007         	goto	u741
  2177   000F04  EF86  F007         	goto	u740
  2178   000F08                     u741:
  2179   000F08  EF8E  F007         	goto	l1721
  2180   000F0C                     u740:
  2181   000F0C  5006               	movf	___lmul@multiplicand^0,w,c
  2182   000F0E  260A               	addwf	___lmul@product^0,f,c
  2183   000F10  5007               	movf	(___lmul@multiplicand+1)^0,w,c
  2184   000F12  220B               	addwfc	(___lmul@product+1)^0,f,c
  2185   000F14  5008               	movf	(___lmul@multiplicand+2)^0,w,c
  2186   000F16  220C               	addwfc	(___lmul@product+2)^0,f,c
  2187   000F18  5009               	movf	(___lmul@multiplicand+3)^0,w,c
  2188   000F1A  220D               	addwfc	(___lmul@product+3)^0,f,c
  2189   000F1C                     l1721:
  2190   000F1C  90D8               	bcf	status,0,c
  2191   000F1E  3606               	rlcf	___lmul@multiplicand^0,f,c
  2192   000F20  3607               	rlcf	(___lmul@multiplicand+1)^0,f,c
  2193   000F22  3608               	rlcf	(___lmul@multiplicand+2)^0,f,c
  2194   000F24  3609               	rlcf	(___lmul@multiplicand+3)^0,f,c
  2195   000F26  90D8               	bcf	status,0,c
  2196   000F28  3205               	rrcf	(___lmul@multiplier+3)^0,f,c
  2197   000F2A  3204               	rrcf	(___lmul@multiplier+2)^0,f,c
  2198   000F2C  3203               	rrcf	(___lmul@multiplier+1)^0,f,c
  2199   000F2E  3202               	rrcf	___lmul@multiplier^0,f,c
  2200   000F30  5002               	movf	___lmul@multiplier^0,w,c
  2201   000F32  1003               	iorwf	(___lmul@multiplier+1)^0,w,c
  2202   000F34  1004               	iorwf	(___lmul@multiplier+2)^0,w,c
  2203   000F36  1005               	iorwf	(___lmul@multiplier+3)^0,w,c
  2204   000F38  A4D8               	btfss	status,2,c
  2205   000F3A  EFA1  F007         	goto	u751
  2206   000F3E  EFA3  F007         	goto	u750
  2207   000F42                     u751:
  2208   000F42  EF7F  F007         	goto	l1717
  2209   000F46                     u750:
  2210   000F46  C00A  F002         	movff	___lmul@product,?___lmul
  2211   000F4A  C00B  F003         	movff	___lmul@product+1,?___lmul+1
  2212   000F4E  C00C  F004         	movff	___lmul@product+2,?___lmul+2
  2213   000F52  C00D  F005         	movff	___lmul@product+3,?___lmul+3
  2214   000F56  0012               	return		;funcret
  2215   000F58                     __end_of___lmul:
  2216                           	callstack 0
  2217                           
  2218 ;; *************** function ___aldiv *****************
  2219 ;; Defined at:
  2220 ;;		line 7 in file "C:\Program Files\Microchip\xc8\v3.10\pic\sources\c99\common\aldiv.c"
  2221 ;; Parameters:    Size  Location     Type
  2222 ;;  dividend        4   12[COMRAM] long 
  2223 ;;  divisor         4   16[COMRAM] long 
  2224 ;; Auto vars:     Size  Location     Type
  2225 ;;  quotient        4   22[COMRAM] long 
  2226 ;;  sign            1   21[COMRAM] unsigned char 
  2227 ;;  counter         1   20[COMRAM] unsigned char 
  2228 ;; Return value:  Size  Location     Type
  2229 ;;                  4   12[COMRAM] long 
  2230 ;; Registers used:
  2231 ;;		wreg, status,2, status,0
  2232 ;; Tracked objects:
  2233 ;;		On entry : 0/0
  2234 ;;		On exit  : 0/0
  2235 ;;		Unchanged: 0/0
  2236 ;; Data sizes:     COMRAM   BANK0   BANK1   BANK2   BANK3   BANK4   BANK5   BANK6   BANK7
  2237 ;;      Params:         8       0       0       0       0       0       0       0       0
  2238 ;;      Locals:         6       0       0       0       0       0       0       0       0
  2239 ;;      Temps:          0       0       0       0       0       0       0       0       0
  2240 ;;      Totals:        14       0       0       0       0       0       0       0       0
  2241 ;;Total ram usage:       14 bytes
  2242 ;; Hardware stack levels used: 1
  2243 ;; Hardware stack levels required when called: 1
  2244 ;; This function calls:
  2245 ;;		Nothing
  2246 ;; This function is called by:
  2247 ;;		_main
  2248 ;; This function uses a non-reentrant model
  2249 ;;
  2250                           
  2251                           	psect	text13
  2252   000AFA                     __ptext13:
  2253                           	callstack 0
  2254   000AFA                     ___aldiv:
  2255                           	callstack 29
  2256   000AFA  6A17               	clrf	___aldiv@sign^0,c
  2257   000AFC  BE15               	btfsc	(___aldiv@divisor+3)^0,7,c
  2258   000AFE  EF85  F005         	goto	u760
  2259   000B02  EF83  F005         	goto	u761
  2260   000B06                     u761:
  2261   000B06  EF8F  F005         	goto	l1733
  2262   000B0A                     u760:
  2263   000B0A  1E15               	comf	(___aldiv@divisor+3)^0,f,c
  2264   000B0C  1E14               	comf	(___aldiv@divisor+2)^0,f,c
  2265   000B0E  1E13               	comf	(___aldiv@divisor+1)^0,f,c
  2266   000B10  6C12               	negf	___aldiv@divisor^0,c
  2267   000B12  0E00               	movlw	0
  2268   000B14  2213               	addwfc	(___aldiv@divisor+1)^0,f,c
  2269   000B16  2214               	addwfc	(___aldiv@divisor+2)^0,f,c
  2270   000B18  2215               	addwfc	(___aldiv@divisor+3)^0,f,c
  2271   000B1A  0E01               	movlw	1
  2272   000B1C  6E17               	movwf	___aldiv@sign^0,c
  2273   000B1E                     l1733:
  2274   000B1E  BE11               	btfsc	(___aldiv@dividend+3)^0,7,c
  2275   000B20  EF96  F005         	goto	u770
  2276   000B24  EF94  F005         	goto	u771
  2277   000B28                     u771:
  2278   000B28  EFA0  F005         	goto	l1739
  2279   000B2C                     u770:
  2280   000B2C  1E11               	comf	(___aldiv@dividend+3)^0,f,c
  2281   000B2E  1E10               	comf	(___aldiv@dividend+2)^0,f,c
  2282   000B30  1E0F               	comf	(___aldiv@dividend+1)^0,f,c
  2283   000B32  6C0E               	negf	___aldiv@dividend^0,c
  2284   000B34  0E00               	movlw	0
  2285   000B36  220F               	addwfc	(___aldiv@dividend+1)^0,f,c
  2286   000B38  2210               	addwfc	(___aldiv@dividend+2)^0,f,c
  2287   000B3A  2211               	addwfc	(___aldiv@dividend+3)^0,f,c
  2288   000B3C  0E01               	movlw	1
  2289   000B3E  1A17               	xorwf	___aldiv@sign^0,f,c
  2290   000B40                     l1739:
  2291   000B40  0E00               	movlw	0
  2292   000B42  6E18               	movwf	___aldiv@quotient^0,c
  2293   000B44  0E00               	movlw	0
  2294   000B46  6E19               	movwf	(___aldiv@quotient+1)^0,c
  2295   000B48  0E00               	movlw	0
  2296   000B4A  6E1A               	movwf	(___aldiv@quotient+2)^0,c
  2297   000B4C  0E00               	movlw	0
  2298   000B4E  6E1B               	movwf	(___aldiv@quotient+3)^0,c
  2299   000B50  5012               	movf	___aldiv@divisor^0,w,c
  2300   000B52  1013               	iorwf	(___aldiv@divisor+1)^0,w,c
  2301   000B54  1014               	iorwf	(___aldiv@divisor+2)^0,w,c
  2302   000B56  1015               	iorwf	(___aldiv@divisor+3)^0,w,c
  2303   000B58  B4D8               	btfsc	status,2,c
  2304   000B5A  EFB1  F005         	goto	u781
  2305   000B5E  EFB3  F005         	goto	u780
  2306   000B62                     u781:
  2307   000B62  EFE9  F005         	goto	l1761
  2308   000B66                     u780:
  2309   000B66  0E01               	movlw	1
  2310   000B68  6E16               	movwf	___aldiv@counter^0,c
  2311   000B6A  EFBD  F005         	goto	l1747
  2312   000B6E                     l1745:
  2313   000B6E  90D8               	bcf	status,0,c
  2314   000B70  3612               	rlcf	___aldiv@divisor^0,f,c
  2315   000B72  3613               	rlcf	(___aldiv@divisor+1)^0,f,c
  2316   000B74  3614               	rlcf	(___aldiv@divisor+2)^0,f,c
  2317   000B76  3615               	rlcf	(___aldiv@divisor+3)^0,f,c
  2318   000B78  2A16               	incf	___aldiv@counter^0,f,c
  2319   000B7A                     l1747:
  2320   000B7A  AE15               	btfss	(___aldiv@divisor+3)^0,7,c
  2321   000B7C  EFC2  F005         	goto	u791
  2322   000B80  EFC4  F005         	goto	u790
  2323   000B84                     u791:
  2324   000B84  EFB7  F005         	goto	l1745
  2325   000B88                     u790:
  2326   000B88                     l1749:
  2327   000B88  90D8               	bcf	status,0,c
  2328   000B8A  3618               	rlcf	___aldiv@quotient^0,f,c
  2329   000B8C  3619               	rlcf	(___aldiv@quotient+1)^0,f,c
  2330   000B8E  361A               	rlcf	(___aldiv@quotient+2)^0,f,c
  2331   000B90  361B               	rlcf	(___aldiv@quotient+3)^0,f,c
  2332   000B92  5012               	movf	___aldiv@divisor^0,w,c
  2333   000B94  5C0E               	subwf	___aldiv@dividend^0,w,c
  2334   000B96  5013               	movf	(___aldiv@divisor+1)^0,w,c
  2335   000B98  580F               	subwfb	(___aldiv@dividend+1)^0,w,c
  2336   000B9A  5014               	movf	(___aldiv@divisor+2)^0,w,c
  2337   000B9C  5810               	subwfb	(___aldiv@dividend+2)^0,w,c
  2338   000B9E  5015               	movf	(___aldiv@divisor+3)^0,w,c
  2339   000BA0  5811               	subwfb	(___aldiv@dividend+3)^0,w,c
  2340   000BA2  A0D8               	btfss	status,0,c
  2341   000BA4  EFD6  F005         	goto	u801
  2342   000BA8  EFD8  F005         	goto	u800
  2343   000BAC                     u801:
  2344   000BAC  EFE1  F005         	goto	l1757
  2345   000BB0                     u800:
  2346   000BB0  5012               	movf	___aldiv@divisor^0,w,c
  2347   000BB2  5E0E               	subwf	___aldiv@dividend^0,f,c
  2348   000BB4  5013               	movf	(___aldiv@divisor+1)^0,w,c
  2349   000BB6  5A0F               	subwfb	(___aldiv@dividend+1)^0,f,c
  2350   000BB8  5014               	movf	(___aldiv@divisor+2)^0,w,c
  2351   000BBA  5A10               	subwfb	(___aldiv@dividend+2)^0,f,c
  2352   000BBC  5015               	movf	(___aldiv@divisor+3)^0,w,c
  2353   000BBE  5A11               	subwfb	(___aldiv@dividend+3)^0,f,c
  2354   000BC0  8018               	bsf	___aldiv@quotient^0,0,c
  2355   000BC2                     l1757:
  2356   000BC2  90D8               	bcf	status,0,c
  2357   000BC4  3215               	rrcf	(___aldiv@divisor+3)^0,f,c
  2358   000BC6  3214               	rrcf	(___aldiv@divisor+2)^0,f,c
  2359   000BC8  3213               	rrcf	(___aldiv@divisor+1)^0,f,c
  2360   000BCA  3212               	rrcf	___aldiv@divisor^0,f,c
  2361   000BCC  2E16               	decfsz	___aldiv@counter^0,f,c
  2362   000BCE  EFC4  F005         	goto	l1749
  2363   000BD2                     l1761:
  2364   000BD2  5017               	movf	___aldiv@sign^0,w,c
  2365   000BD4  B4D8               	btfsc	status,2,c
  2366   000BD6  EFEF  F005         	goto	u811
  2367   000BDA  EFF1  F005         	goto	u810
  2368   000BDE                     u811:
  2369   000BDE  EFF9  F005         	goto	l1765
  2370   000BE2                     u810:
  2371   000BE2  1E1B               	comf	(___aldiv@quotient+3)^0,f,c
  2372   000BE4  1E1A               	comf	(___aldiv@quotient+2)^0,f,c
  2373   000BE6  1E19               	comf	(___aldiv@quotient+1)^0,f,c
  2374   000BE8  6C18               	negf	___aldiv@quotient^0,c
  2375   000BEA  0E00               	movlw	0
  2376   000BEC  2219               	addwfc	(___aldiv@quotient+1)^0,f,c
  2377   000BEE  221A               	addwfc	(___aldiv@quotient+2)^0,f,c
  2378   000BF0  221B               	addwfc	(___aldiv@quotient+3)^0,f,c
  2379   000BF2                     l1765:
  2380   000BF2  C018  F00E         	movff	___aldiv@quotient,?___aldiv
  2381   000BF6  C019  F00F         	movff	___aldiv@quotient+1,?___aldiv+1
  2382   000BFA  C01A  F010         	movff	___aldiv@quotient+2,?___aldiv+2
  2383   000BFE  C01B  F011         	movff	___aldiv@quotient+3,?___aldiv+3
  2384   000C02  0012               	return		;funcret
  2385   000C04                     __end_of___aldiv:
  2386                           	callstack 0
  2387                           
  2388 ;; *************** function _UART_Write_Text *****************
  2389 ;; Defined at:
  2390 ;;		line 98 in file "ex_ad.c"
  2391 ;; Parameters:    Size  Location     Type
  2392 ;;  txt             2    0[COMRAM] PTR unsigned char 
  2393 ;;		 -> STR_4(3), main@temp_str(6), 
  2394 ;; Auto vars:     Size  Location     Type
  2395 ;;		None
  2396 ;; Return value:  Size  Location     Type
  2397 ;;                  1    wreg      void 
  2398 ;; Registers used:
  2399 ;;		wreg, fsr1l, fsr1h, status,2, status,0, tblptrl, tblptrh, tblptru
  2400 ;; Tracked objects:
  2401 ;;		On entry : 0/0
  2402 ;;		On exit  : 0/0
  2403 ;;		Unchanged: 0/0
  2404 ;; Data sizes:     COMRAM   BANK0   BANK1   BANK2   BANK3   BANK4   BANK5   BANK6   BANK7
  2405 ;;      Params:         2       0       0       0       0       0       0       0       0
  2406 ;;      Locals:         0       0       0       0       0       0       0       0       0
  2407 ;;      Temps:          0       0       0       0       0       0       0       0       0
  2408 ;;      Totals:         2       0       0       0       0       0       0       0       0
  2409 ;;Total ram usage:        2 bytes
  2410 ;; Hardware stack levels used: 1
  2411 ;; Hardware stack levels required when called: 1
  2412 ;; This function calls:
  2413 ;;		Nothing
  2414 ;; This function is called by:
  2415 ;;		_main
  2416 ;; This function uses a non-reentrant model
  2417 ;;
  2418                           
  2419                           	psect	text14
  2420   000F58                     __ptext14:
  2421                           	callstack 0
  2422   000F58                     _UART_Write_Text:
  2423                           	callstack 29
  2424   000F58  EFC8  F007         	goto	l1681
  2425   000F5C                     l68:
  2426   000F5C  A89E               	btfss	158,4,c	;volatile
  2427   000F5E  EFB3  F007         	goto	u641
  2428   000F62  EFB5  F007         	goto	u640
  2429   000F66                     u641:
  2430   000F66  EFAE  F007         	goto	l68
  2431   000F6A                     u640:
  2432   000F6A  C002  FFF6         	movff	UART_Write_Text@txt,tblptrl
  2433   000F6E  C003  FFF7         	movff	UART_Write_Text@txt+1,tblptrh
  2434   000F72  6AF8               	clrf	tblptru,c
  2435   000F74  0E07               	movlw	(high __ramtop+-1)
  2436   000F76  64F7               	cpfsgt	tblptrh,c
  2437   000F78  D003               	bra	u657
  2438   000F7A  0008               	tblrd		*
  2439   000F7C  50F5               	movf	tablat,w,c
  2440   000F7E  D005               	bra	u650
  2441   000F80                     u657:
  2442   000F80  CFF6 FFE1          	movff	tblptrl,fsr1l
  2443   000F84  CFF7 FFE2          	movff	tblptrh,fsr1h
  2444   000F88  50E7               	movf	indf1,w,c
  2445   000F8A                     u650:
  2446   000F8A  6EAD               	movwf	173,c	;volatile
  2447   000F8C  4A02               	infsnz	UART_Write_Text@txt^0,f,c
  2448   000F8E  2A03               	incf	(UART_Write_Text@txt+1)^0,f,c
  2449   000F90                     l1681:
  2450   000F90  C002  FFF6         	movff	UART_Write_Text@txt,tblptrl
  2451   000F94  C003  FFF7         	movff	UART_Write_Text@txt+1,tblptrh
  2452   000F98  6AF8               	clrf	tblptru,c
  2453   000F9A  0E07               	movlw	(high __ramtop+-1)
  2454   000F9C  64F7               	cpfsgt	tblptrh,c
  2455   000F9E  D003               	bra	u667
  2456   000FA0  0008               	tblrd		*
  2457   000FA2  50F5               	movf	tablat,w,c
  2458   000FA4  D005               	bra	u660
  2459   000FA6                     u667:
  2460   000FA6  CFF6 FFE1          	movff	tblptrl,fsr1l
  2461   000FAA  CFF7 FFE2          	movff	tblptrh,fsr1h
  2462   000FAE  50E7               	movf	indf1,w,c
  2463   000FB0                     u660:
  2464   000FB0  0900               	iorlw	0
  2465   000FB2  A4D8               	btfss	status,2,c
  2466   000FB4  EFDE  F007         	goto	u671
  2467   000FB8  EFE0  F007         	goto	u670
  2468   000FBC                     u671:
  2469   000FBC  EFAE  F007         	goto	l68
  2470   000FC0                     u670:
  2471   000FC0  0012               	return		;funcret
  2472   000FC2                     __end_of_UART_Write_Text:
  2473                           	callstack 0
  2474                           
  2475 ;; *************** function _OpenXLCD *****************
  2476 ;; Defined at:
  2477 ;;		line 41 in file "nxlcd.c"
  2478 ;; Parameters:    Size  Location     Type
  2479 ;;  lcdtype         1    wreg     unsigned char 
  2480 ;; Auto vars:     Size  Location     Type
  2481 ;;  lcdtype         1    1[COMRAM] unsigned char 
  2482 ;; Return value:  Size  Location     Type
  2483 ;;                  1    wreg      void 
  2484 ;; Registers used:
  2485 ;;		wreg, status,2, status,0, cstack
  2486 ;; Tracked objects:
  2487 ;;		On entry : 0/0
  2488 ;;		On exit  : 0/0
  2489 ;;		Unchanged: 0/0
  2490 ;; Data sizes:     COMRAM   BANK0   BANK1   BANK2   BANK3   BANK4   BANK5   BANK6   BANK7
  2491 ;;      Params:         0       0       0       0       0       0       0       0       0
  2492 ;;      Locals:         1       0       0       0       0       0       0       0       0
  2493 ;;      Temps:          0       0       0       0       0       0       0       0       0
  2494 ;;      Totals:         1       0       0       0       0       0       0       0       0
  2495 ;;Total ram usage:        1 bytes
  2496 ;; Hardware stack levels used: 1
  2497 ;; Hardware stack levels required when called: 3
  2498 ;; This function calls:
  2499 ;;		_BusyXLCD
  2500 ;;		_DelayPORXLCD
  2501 ;;		_DelayXLCD
  2502 ;;		_SetDDRamAddr
  2503 ;;		_WriteCmdXLCD
  2504 ;; This function is called by:
  2505 ;;		_main
  2506 ;; This function uses a non-reentrant model
  2507 ;;
  2508                           
  2509                           	psect	text15
  2510   000C04                     __ptext15:
  2511                           	callstack 0
  2512   000C04                     _OpenXLCD:
  2513                           	callstack 27
  2514                           
  2515                           ;incstack = 0
  2516                           ;OpenXLCD@lcdtype stored from wreg
  2517   000C04  6E03               	movwf	OpenXLCD@lcdtype^0,c
  2518   000C06                     
  2519                           ;nxlcd.c: 41: void OpenXLCD(unsigned char lcdtype);nxlcd.c: 42: {;nxlcd.c: 50:         P
      +                          ORTD &= 0x0f;
  2520   000C06  0E0F               	movlw	15
  2521   000C08  1683               	andwf	131,f,c	;volatile
  2522                           
  2523                           ;nxlcd.c: 51:         TRISD &= 0x0F;
  2524   000C0A  0E0F               	movlw	15
  2525   000C0C  1695               	andwf	149,f,c	;volatile
  2526   000C0E                     
  2527                           ;nxlcd.c: 57:         TRISEbits.TRISE2 = 0;
  2528   000C0E  9496               	bcf	150,2,c	;volatile
  2529   000C10                     
  2530                           ;nxlcd.c: 58:         TRISEbits.TRISE0 = 0;
  2531   000C10  9096               	bcf	150,0,c	;volatile
  2532   000C12                     
  2533                           ;nxlcd.c: 59:         TRISEbits.TRISE1 = 0;
  2534   000C12  9296               	bcf	150,1,c	;volatile
  2535   000C14                     
  2536                           ;nxlcd.c: 60:         LATEbits.LATE2 = 0;
  2537   000C14  948D               	bcf	141,2,c	;volatile
  2538   000C16                     
  2539                           ;nxlcd.c: 61:         LATEbits.LATE0 = 0;
  2540   000C16  908D               	bcf	141,0,c	;volatile
  2541   000C18                     
  2542                           ;nxlcd.c: 62:         LATEbits.LATE1 = 0;
  2543   000C18  928D               	bcf	141,1,c	;volatile
  2544   000C1A                     
  2545                           ;nxlcd.c: 65:         DelayPORXLCD();
  2546   000C1A  EC35  F009         	call	_DelayPORXLCD	;wreg free
  2547   000C1E                     
  2548                           ;nxlcd.c: 67:    WriteCmdXLCD(0x30);
  2549   000C1E  0E30               	movlw	48
  2550   000C20  ECBE  F008         	call	_WriteCmdXLCD
  2551   000C24                     
  2552                           ;nxlcd.c: 68:    DelayXLCD();
  2553   000C24  EC2C  F009         	call	_DelayXLCD	;wreg free
  2554   000C28                     
  2555                           ;nxlcd.c: 69:    DelayXLCD();
  2556   000C28  EC2C  F009         	call	_DelayXLCD	;wreg free
  2557   000C2C                     
  2558                           ;nxlcd.c: 70:    WriteCmdXLCD(0x30);
  2559   000C2C  0E30               	movlw	48
  2560   000C2E  ECBE  F008         	call	_WriteCmdXLCD
  2561   000C32                     
  2562                           ;nxlcd.c: 71:    DelayXLCD();
  2563   000C32  EC2C  F009         	call	_DelayXLCD	;wreg free
  2564   000C36                     
  2565                           ;nxlcd.c: 72:    DelayXLCD();
  2566   000C36  EC2C  F009         	call	_DelayXLCD	;wreg free
  2567   000C3A                     
  2568                           ;nxlcd.c: 73:    WriteCmdXLCD(0x32);
  2569   000C3A  0E32               	movlw	50
  2570   000C3C  ECBE  F008         	call	_WriteCmdXLCD
  2571   000C40                     l1305:
  2572   000C40  EC5C  F008         	call	_BusyXLCD	;wreg free
  2573   000C44  0900               	iorlw	0
  2574   000C46  A4D8               	btfss	status,2,c
  2575   000C48  EF28  F006         	goto	u221
  2576   000C4C  EF2A  F006         	goto	u220
  2577   000C50                     u221:
  2578   000C50  EF20  F006         	goto	l1305
  2579   000C54                     u220:
  2580   000C54                     l1307:
  2581   000C54  EC5C  F008         	call	_BusyXLCD	;wreg free
  2582   000C58  0900               	iorlw	0
  2583   000C5A  A4D8               	btfss	status,2,c
  2584   000C5C  EF32  F006         	goto	u231
  2585   000C60  EF34  F006         	goto	u230
  2586   000C64                     u231:
  2587   000C64  EF2A  F006         	goto	l1307
  2588   000C68                     u230:
  2589   000C68                     
  2590                           ;nxlcd.c: 80:         WriteCmdXLCD(lcdtype);
  2591   000C68  5003               	movf	OpenXLCD@lcdtype^0,w,c
  2592   000C6A  ECBE  F008         	call	_WriteCmdXLCD
  2593   000C6E                     l1311:
  2594   000C6E  EC5C  F008         	call	_BusyXLCD	;wreg free
  2595   000C72  0900               	iorlw	0
  2596   000C74  A4D8               	btfss	status,2,c
  2597   000C76  EF3F  F006         	goto	u241
  2598   000C7A  EF41  F006         	goto	u240
  2599   000C7E                     u241:
  2600   000C7E  EF37  F006         	goto	l1311
  2601   000C82                     u240:
  2602   000C82                     
  2603                           ;nxlcd.c: 84:         WriteCmdXLCD(0b00001011&0b00001101&0b00001110);
  2604   000C82  0E08               	movlw	8
  2605   000C84  ECBE  F008         	call	_WriteCmdXLCD
  2606   000C88                     l1315:
  2607   000C88  EC5C  F008         	call	_BusyXLCD	;wreg free
  2608   000C8C  0900               	iorlw	0
  2609   000C8E  A4D8               	btfss	status,2,c
  2610   000C90  EF4C  F006         	goto	u251
  2611   000C94  EF4E  F006         	goto	u250
  2612   000C98                     u251:
  2613   000C98  EF44  F006         	goto	l1315
  2614   000C9C                     u250:
  2615   000C9C                     
  2616                           ;nxlcd.c: 86:         WriteCmdXLCD(0b00001111&0b00001111&0b00001111);
  2617   000C9C  0E0F               	movlw	15
  2618   000C9E  ECBE  F008         	call	_WriteCmdXLCD
  2619   000CA2                     l1319:
  2620   000CA2  EC5C  F008         	call	_BusyXLCD	;wreg free
  2621   000CA6  0900               	iorlw	0
  2622   000CA8  A4D8               	btfss	status,2,c
  2623   000CAA  EF59  F006         	goto	u261
  2624   000CAE  EF5B  F006         	goto	u260
  2625   000CB2                     u261:
  2626   000CB2  EF51  F006         	goto	l1319
  2627   000CB6                     u260:
  2628   000CB6                     
  2629                           ;nxlcd.c: 90:         WriteCmdXLCD(0x01);
  2630   000CB6  0E01               	movlw	1
  2631   000CB8  ECBE  F008         	call	_WriteCmdXLCD
  2632   000CBC                     l1323:
  2633   000CBC  EC5C  F008         	call	_BusyXLCD	;wreg free
  2634   000CC0  0900               	iorlw	0
  2635   000CC2  A4D8               	btfss	status,2,c
  2636   000CC4  EF66  F006         	goto	u271
  2637   000CC8  EF68  F006         	goto	u270
  2638   000CCC                     u271:
  2639   000CCC  EF5E  F006         	goto	l1323
  2640   000CD0                     u270:
  2641   000CD0                     
  2642                           ;nxlcd.c: 94:         WriteCmdXLCD(0b00000100);
  2643   000CD0  0E04               	movlw	4
  2644   000CD2  ECBE  F008         	call	_WriteCmdXLCD
  2645   000CD6                     l1327:
  2646   000CD6  EC5C  F008         	call	_BusyXLCD	;wreg free
  2647   000CDA  0900               	iorlw	0
  2648   000CDC  A4D8               	btfss	status,2,c
  2649   000CDE  EF73  F006         	goto	u281
  2650   000CE2  EF75  F006         	goto	u280
  2651   000CE6                     u281:
  2652   000CE6  EF6B  F006         	goto	l1327
  2653   000CEA                     u280:
  2654   000CEA                     
  2655                           ;nxlcd.c: 98:         SetDDRamAddr(0x80);
  2656   000CEA  0E80               	movlw	128
  2657   000CEC  EC7F  F008         	call	_SetDDRamAddr
  2658   000CF0  0012               	return		;funcret
  2659   000CF2                     __end_of_OpenXLCD:
  2660                           	callstack 0
  2661                           
  2662 ;; *************** function _WriteCmdXLCD *****************
  2663 ;; Defined at:
  2664 ;;		line 388 in file "nxlcd.c"
  2665 ;; Parameters:    Size  Location     Type
  2666 ;;  cmd             1    wreg     unsigned char 
  2667 ;; Auto vars:     Size  Location     Type
  2668 ;;  cmd             1    0[COMRAM] unsigned char 
  2669 ;; Return value:  Size  Location     Type
  2670 ;;                  1    wreg      void 
  2671 ;; Registers used:
  2672 ;;		wreg, status,2, status,0, cstack
  2673 ;; Tracked objects:
  2674 ;;		On entry : 0/0
  2675 ;;		On exit  : 0/0
  2676 ;;		Unchanged: 0/0
  2677 ;; Data sizes:     COMRAM   BANK0   BANK1   BANK2   BANK3   BANK4   BANK5   BANK6   BANK7
  2678 ;;      Params:         0       0       0       0       0       0       0       0       0
  2679 ;;      Locals:         1       0       0       0       0       0       0       0       0
  2680 ;;      Temps:          0       0       0       0       0       0       0       0       0
  2681 ;;      Totals:         1       0       0       0       0       0       0       0       0
  2682 ;;Total ram usage:        1 bytes
  2683 ;; Hardware stack levels used: 1
  2684 ;; Hardware stack levels required when called: 1
  2685 ;; This function calls:
  2686 ;;		_DelayFor18TCY
  2687 ;; This function is called by:
  2688 ;;		_main
  2689 ;;		_OpenXLCD
  2690 ;; This function uses a non-reentrant model
  2691 ;;
  2692                           
  2693                           	psect	text16
  2694   00117C                     __ptext16:
  2695                           	callstack 0
  2696   00117C                     _WriteCmdXLCD:
  2697                           	callstack 28
  2698                           
  2699                           ;incstack = 0
  2700                           ;WriteCmdXLCD@cmd stored from wreg
  2701   00117C  6E02               	movwf	WriteCmdXLCD@cmd^0,c
  2702   00117E                     
  2703                           ;nxlcd.c: 388: void WriteCmdXLCD(unsigned char cmd);nxlcd.c: 389: {;nxlcd.c: 403:       
      +                            TRISD &= 0x0f;
  2704   00117E  0E0F               	movlw	15
  2705   001180  1695               	andwf	149,f,c	;volatile
  2706                           
  2707                           ;nxlcd.c: 404:         PORTD &= 0x0f;
  2708   001182  0E0F               	movlw	15
  2709   001184  1683               	andwf	131,f,c	;volatile
  2710                           
  2711                           ;nxlcd.c: 405:         PORTD |= cmd&0xf0;
  2712   001186  5002               	movf	WriteCmdXLCD@cmd^0,w,c
  2713   001188  0BF0               	andlw	240
  2714   00118A  1283               	iorwf	131,f,c	;volatile
  2715   00118C                     
  2716                           ;nxlcd.c: 411:         LATEbits.LATE2 = 0;
  2717   00118C  948D               	bcf	141,2,c	;volatile
  2718   00118E                     
  2719                           ;nxlcd.c: 412:         LATEbits.LATE0 = 0;
  2720   00118E  908D               	bcf	141,0,c	;volatile
  2721   001190                     
  2722                           ;nxlcd.c: 413:         DelayFor18TCY();
  2723   001190  EC3D  F009         	call	_DelayFor18TCY	;wreg free
  2724   001194                     
  2725                           ;nxlcd.c: 414:         LATEbits.LATE1 = 1;
  2726   001194  828D               	bsf	141,1,c	;volatile
  2727   001196                     
  2728                           ;nxlcd.c: 415:         DelayFor18TCY();
  2729   001196  EC3D  F009         	call	_DelayFor18TCY	;wreg free
  2730   00119A                     
  2731                           ;nxlcd.c: 416:         LATEbits.LATE1 = 0;
  2732   00119A  928D               	bcf	141,1,c	;volatile
  2733                           
  2734                           ;nxlcd.c: 418:         PORTD &= 0x0f;
  2735   00119C  0E0F               	movlw	15
  2736   00119E  1683               	andwf	131,f,c	;volatile
  2737                           
  2738                           ;nxlcd.c: 419:         PORTD |= (cmd<<4)&0xf0;
  2739   0011A0  3802               	swapf	WriteCmdXLCD@cmd^0,w,c
  2740   0011A2  0BF0               	andlw	240
  2741   0011A4  0BF0               	andlw	240
  2742   0011A6  1283               	iorwf	131,f,c	;volatile
  2743   0011A8                     
  2744                           ;nxlcd.c: 424:         DelayFor18TCY();
  2745   0011A8  EC3D  F009         	call	_DelayFor18TCY	;wreg free
  2746   0011AC                     
  2747                           ;nxlcd.c: 425:         LATEbits.LATE1 = 1;
  2748   0011AC  828D               	bsf	141,1,c	;volatile
  2749   0011AE                     
  2750                           ;nxlcd.c: 426:         DelayFor18TCY();
  2751   0011AE  EC3D  F009         	call	_DelayFor18TCY	;wreg free
  2752   0011B2                     
  2753                           ;nxlcd.c: 427:         LATEbits.LATE1 = 0;
  2754   0011B2  928D               	bcf	141,1,c	;volatile
  2755                           
  2756                           ;nxlcd.c: 429:         TRISD |= 0xf0;
  2757   0011B4  0EF0               	movlw	240
  2758   0011B6  1295               	iorwf	149,f,c	;volatile
  2759   0011B8  0012               	return		;funcret
  2760   0011BA                     __end_of_WriteCmdXLCD:
  2761                           	callstack 0
  2762                           
  2763 ;; *************** function _SetDDRamAddr *****************
  2764 ;; Defined at:
  2765 ;;		line 171 in file "nxlcd.c"
  2766 ;; Parameters:    Size  Location     Type
  2767 ;;  DDaddr          1    wreg     unsigned char 
  2768 ;; Auto vars:     Size  Location     Type
  2769 ;;  DDaddr          1    0[COMRAM] unsigned char 
  2770 ;; Return value:  Size  Location     Type
  2771 ;;                  1    wreg      void 
  2772 ;; Registers used:
  2773 ;;		wreg, status,2, status,0, cstack
  2774 ;; Tracked objects:
  2775 ;;		On entry : 0/0
  2776 ;;		On exit  : 0/0
  2777 ;;		Unchanged: 0/0
  2778 ;; Data sizes:     COMRAM   BANK0   BANK1   BANK2   BANK3   BANK4   BANK5   BANK6   BANK7
  2779 ;;      Params:         0       0       0       0       0       0       0       0       0
  2780 ;;      Locals:         1       0       0       0       0       0       0       0       0
  2781 ;;      Temps:          0       0       0       0       0       0       0       0       0
  2782 ;;      Totals:         1       0       0       0       0       0       0       0       0
  2783 ;;Total ram usage:        1 bytes
  2784 ;; Hardware stack levels used: 1
  2785 ;; Hardware stack levels required when called: 2
  2786 ;; This function calls:
  2787 ;;		_DelayFor18TCY
  2788 ;; This function is called by:
  2789 ;;		_OpenXLCD
  2790 ;; This function uses a non-reentrant model
  2791 ;;
  2792                           
  2793                           	psect	text17
  2794   0010FE                     __ptext17:
  2795                           	callstack 0
  2796   0010FE                     _SetDDRamAddr:
  2797                           	callstack 27
  2798                           
  2799                           ;incstack = 0
  2800                           ;SetDDRamAddr@DDaddr stored from wreg
  2801   0010FE  6E02               	movwf	SetDDRamAddr@DDaddr^0,c
  2802   001100                     
  2803                           ;nxlcd.c: 171: void SetDDRamAddr(unsigned char DDaddr);nxlcd.c: 172: {;nxlcd.c: 186:    
      +                               TRISD &= 0x0f;
  2804   001100  0E0F               	movlw	15
  2805   001102  1695               	andwf	149,f,c	;volatile
  2806                           
  2807                           ;nxlcd.c: 187:         PORTD &= 0x0f;
  2808   001104  0E0F               	movlw	15
  2809   001106  1683               	andwf	131,f,c	;volatile
  2810                           
  2811                           ;nxlcd.c: 188:         PORTD |= ((DDaddr | 0b10000000) & 0xf0);
  2812   001108  5002               	movf	SetDDRamAddr@DDaddr^0,w,c
  2813   00110A  0980               	iorlw	128
  2814   00110C  0BF0               	andlw	240
  2815   00110E  1283               	iorwf	131,f,c	;volatile
  2816   001110                     
  2817                           ;nxlcd.c: 194:         LATEbits.LATE2 = 0;
  2818   001110  948D               	bcf	141,2,c	;volatile
  2819   001112                     
  2820                           ;nxlcd.c: 195:         LATEbits.LATE0 = 0;
  2821   001112  908D               	bcf	141,0,c	;volatile
  2822   001114                     
  2823                           ;nxlcd.c: 196:         DelayFor18TCY();
  2824   001114  EC3D  F009         	call	_DelayFor18TCY	;wreg free
  2825   001118                     
  2826                           ;nxlcd.c: 197:         LATEbits.LATE1 = 1;
  2827   001118  828D               	bsf	141,1,c	;volatile
  2828   00111A                     
  2829                           ;nxlcd.c: 198:         DelayFor18TCY();
  2830   00111A  EC3D  F009         	call	_DelayFor18TCY	;wreg free
  2831   00111E                     
  2832                           ;nxlcd.c: 199:         LATEbits.LATE1 = 0;
  2833   00111E  928D               	bcf	141,1,c	;volatile
  2834                           
  2835                           ;nxlcd.c: 201:         PORTD &= 0x0f;
  2836   001120  0E0F               	movlw	15
  2837   001122  1683               	andwf	131,f,c	;volatile
  2838                           
  2839                           ;nxlcd.c: 202:         PORTD |= ((DDaddr<<4)&0xf0);
  2840   001124  3802               	swapf	SetDDRamAddr@DDaddr^0,w,c
  2841   001126  0BF0               	andlw	240
  2842   001128  0BF0               	andlw	240
  2843   00112A  1283               	iorwf	131,f,c	;volatile
  2844   00112C                     
  2845                           ;nxlcd.c: 207:         DelayFor18TCY();
  2846   00112C  EC3D  F009         	call	_DelayFor18TCY	;wreg free
  2847   001130                     
  2848                           ;nxlcd.c: 208:         LATEbits.LATE1 = 1;
  2849   001130  828D               	bsf	141,1,c	;volatile
  2850   001132                     
  2851                           ;nxlcd.c: 209:         DelayFor18TCY();
  2852   001132  EC3D  F009         	call	_DelayFor18TCY	;wreg free
  2853   001136                     
  2854                           ;nxlcd.c: 210:         LATEbits.LATE1 = 0;
  2855   001136  928D               	bcf	141,1,c	;volatile
  2856                           
  2857                           ;nxlcd.c: 212:         TRISD |= 0xf0;
  2858   001138  0EF0               	movlw	240
  2859   00113A  1295               	iorwf	149,f,c	;volatile
  2860   00113C  0012               	return		;funcret
  2861   00113E                     __end_of_SetDDRamAddr:
  2862                           	callstack 0
  2863                           
  2864 ;; *************** function _DelayXLCD *****************
  2865 ;; Defined at:
  2866 ;;		line 22 in file "nxlcd.c"
  2867 ;; Parameters:    Size  Location     Type
  2868 ;;		None
  2869 ;; Auto vars:     Size  Location     Type
  2870 ;;		None
  2871 ;; Return value:  Size  Location     Type
  2872 ;;                  1    wreg      void 
  2873 ;; Registers used:
  2874 ;;		wreg
  2875 ;; Tracked objects:
  2876 ;;		On entry : 0/0
  2877 ;;		On exit  : 0/0
  2878 ;;		Unchanged: 0/0
  2879 ;; Data sizes:     COMRAM   BANK0   BANK1   BANK2   BANK3   BANK4   BANK5   BANK6   BANK7
  2880 ;;      Params:         0       0       0       0       0       0       0       0       0
  2881 ;;      Locals:         0       0       0       0       0       0       0       0       0
  2882 ;;      Temps:          1       0       0       0       0       0       0       0       0
  2883 ;;      Totals:         1       0       0       0       0       0       0       0       0
  2884 ;;Total ram usage:        1 bytes
  2885 ;; Hardware stack levels used: 1
  2886 ;; Hardware stack levels required when called: 1
  2887 ;; This function calls:
  2888 ;;		Nothing
  2889 ;; This function is called by:
  2890 ;;		_OpenXLCD
  2891 ;; This function uses a non-reentrant model
  2892 ;;
  2893                           
  2894                           	psect	text18
  2895   001258                     __ptext18:
  2896                           	callstack 0
  2897   001258                     _DelayXLCD:
  2898                           	callstack 28
  2899   001258                     
  2900                           ;nxlcd.c: 24:     _delay((unsigned long)((5)*(20000000/4000.0)));
  2901   001258  0E21               	movlw	33
  2902   00125A  6E02               	movwf	??_DelayXLCD^0,c
  2903   00125C  0E76               	movlw	118
  2904   00125E                     u857:
  2905   00125E  2EE8               	decfsz	wreg,f,c
  2906   001260  D7FE               	bra	u857
  2907   001262  2E02               	decfsz	??_DelayXLCD^0,f,c
  2908   001264  D7FC               	bra	u857
  2909   001266  D000               	nop2	
  2910   001268  0012               	return		;funcret
  2911   00126A                     __end_of_DelayXLCD:
  2912                           	callstack 0
  2913                           
  2914 ;; *************** function _DelayPORXLCD *****************
  2915 ;; Defined at:
  2916 ;;		line 17 in file "nxlcd.c"
  2917 ;; Parameters:    Size  Location     Type
  2918 ;;		None
  2919 ;; Auto vars:     Size  Location     Type
  2920 ;;		None
  2921 ;; Return value:  Size  Location     Type
  2922 ;;                  1    wreg      void 
  2923 ;; Registers used:
  2924 ;;		wreg
  2925 ;; Tracked objects:
  2926 ;;		On entry : 0/0
  2927 ;;		On exit  : 0/0
  2928 ;;		Unchanged: 0/0
  2929 ;; Data sizes:     COMRAM   BANK0   BANK1   BANK2   BANK3   BANK4   BANK5   BANK6   BANK7
  2930 ;;      Params:         0       0       0       0       0       0       0       0       0
  2931 ;;      Locals:         0       0       0       0       0       0       0       0       0
  2932 ;;      Temps:          1       0       0       0       0       0       0       0       0
  2933 ;;      Totals:         1       0       0       0       0       0       0       0       0
  2934 ;;Total ram usage:        1 bytes
  2935 ;; Hardware stack levels used: 1
  2936 ;; Hardware stack levels required when called: 1
  2937 ;; This function calls:
  2938 ;;		Nothing
  2939 ;; This function is called by:
  2940 ;;		_OpenXLCD
  2941 ;; This function uses a non-reentrant model
  2942 ;;
  2943                           
  2944                           	psect	text19
  2945   00126A                     __ptext19:
  2946                           	callstack 0
  2947   00126A                     _DelayPORXLCD:
  2948                           	callstack 28
  2949   00126A                     
  2950                           ;nxlcd.c: 19:     _delay((unsigned long)((15)*(20000000/4000.0)));
  2951   00126A  0E62               	movlw	98
  2952   00126C  6E02               	movwf	??_DelayPORXLCD^0,c
  2953   00126E  0E66               	movlw	102
  2954   001270                     u867:
  2955   001270  2EE8               	decfsz	wreg,f,c
  2956   001272  D7FE               	bra	u867
  2957   001274  2E02               	decfsz	??_DelayPORXLCD^0,f,c
  2958   001276  D7FC               	bra	u867
  2959   001278  0012               	return		;funcret
  2960   00127A                     __end_of_DelayPORXLCD:
  2961                           	callstack 0
  2962                           
  2963 ;; *************** function _BusyXLCD *****************
  2964 ;; Defined at:
  2965 ;;		line 227 in file "nxlcd.c"
  2966 ;; Parameters:    Size  Location     Type
  2967 ;;		None
  2968 ;; Auto vars:     Size  Location     Type
  2969 ;;		None
  2970 ;; Return value:  Size  Location     Type
  2971 ;;                  1    wreg      unsigned char 
  2972 ;; Registers used:
  2973 ;;		wreg, cstack
  2974 ;; Tracked objects:
  2975 ;;		On entry : 0/0
  2976 ;;		On exit  : 0/0
  2977 ;;		Unchanged: 0/0
  2978 ;; Data sizes:     COMRAM   BANK0   BANK1   BANK2   BANK3   BANK4   BANK5   BANK6   BANK7
  2979 ;;      Params:         0       0       0       0       0       0       0       0       0
  2980 ;;      Locals:         0       0       0       0       0       0       0       0       0
  2981 ;;      Temps:          0       0       0       0       0       0       0       0       0
  2982 ;;      Totals:         0       0       0       0       0       0       0       0       0
  2983 ;;Total ram usage:        0 bytes
  2984 ;; Hardware stack levels used: 1
  2985 ;; Hardware stack levels required when called: 1
  2986 ;; This function calls:
  2987 ;;		_DelayFor18TCY
  2988 ;; This function is called by:
  2989 ;;		_OpenXLCD
  2990 ;;		_putsXLCD
  2991 ;;		_putrsXLCD
  2992 ;; This function uses a non-reentrant model
  2993 ;;
  2994                           
  2995                           	psect	text20
  2996   0010B8                     __ptext20:
  2997                           	callstack 0
  2998   0010B8                     _BusyXLCD:
  2999                           	callstack 28
  3000   0010B8                     
  3001                           ;nxlcd.c: 229:         LATEbits.LATE2 = 1;
  3002   0010B8  848D               	bsf	141,2,c	;volatile
  3003                           
  3004                           ;nxlcd.c: 230:         LATEbits.LATE0 = 0;
  3005   0010BA  908D               	bcf	141,0,c	;volatile
  3006   0010BC                     
  3007                           ;nxlcd.c: 231:         DelayFor18TCY();
  3008   0010BC  EC3D  F009         	call	_DelayFor18TCY	;wreg free
  3009   0010C0                     
  3010                           ;nxlcd.c: 232:         LATEbits.LATE1 = 1;
  3011   0010C0  828D               	bsf	141,1,c	;volatile
  3012                           
  3013                           ;nxlcd.c: 233:         DelayFor18TCY();
  3014   0010C2  EC3D  F009         	call	_DelayFor18TCY	;wreg free
  3015   0010C6                     
  3016                           ;nxlcd.c: 249:         if(PORTD&0x80)
  3017   0010C6  AE83               	btfss	131,7,c	;volatile
  3018   0010C8  EF68  F008         	goto	u161
  3019   0010CC  EF6A  F008         	goto	u160
  3020   0010D0                     u161:
  3021   0010D0  EF75  F008         	goto	l151
  3022   0010D4                     u160:
  3023   0010D4                     
  3024                           ;nxlcd.c: 253:         {;nxlcd.c: 254:                 LATEbits.LATE1 = 0;
  3025   0010D4  928D               	bcf	141,1,c	;volatile
  3026   0010D6                     
  3027                           ;nxlcd.c: 255:                 DelayFor18TCY();
  3028   0010D6  EC3D  F009         	call	_DelayFor18TCY	;wreg free
  3029   0010DA                     
  3030                           ;nxlcd.c: 256:                 LATEbits.LATE1 = 1;
  3031   0010DA  828D               	bsf	141,1,c	;volatile
  3032                           
  3033                           ;nxlcd.c: 257:                 DelayFor18TCY();
  3034   0010DC  EC3D  F009         	call	_DelayFor18TCY	;wreg free
  3035   0010E0                     
  3036                           ;nxlcd.c: 258:                 LATEbits.LATE1 = 0;
  3037   0010E0  928D               	bcf	141,1,c	;volatile
  3038   0010E2                     
  3039                           ;nxlcd.c: 259:                 LATEbits.LATE2 = 0;
  3040   0010E2  948D               	bcf	141,2,c	;volatile
  3041   0010E4                     
  3042                           ;nxlcd.c: 260:                 return 1;
  3043   0010E4  0E01               	movlw	1
  3044   0010E6  EF7E  F008         	goto	l152
  3045   0010EA                     l151:
  3046                           
  3047                           ;nxlcd.c: 263:         {;nxlcd.c: 264:                 LATEbits.LATE1 = 0;
  3048   0010EA  928D               	bcf	141,1,c	;volatile
  3049   0010EC                     
  3050                           ;nxlcd.c: 265:                 DelayFor18TCY();
  3051   0010EC  EC3D  F009         	call	_DelayFor18TCY	;wreg free
  3052   0010F0                     
  3053                           ;nxlcd.c: 266:                 LATEbits.LATE1 = 1;
  3054   0010F0  828D               	bsf	141,1,c	;volatile
  3055                           
  3056                           ;nxlcd.c: 267:                 DelayFor18TCY();
  3057   0010F2  EC3D  F009         	call	_DelayFor18TCY	;wreg free
  3058   0010F6                     
  3059                           ;nxlcd.c: 268:                 LATEbits.LATE1 = 0;
  3060   0010F6  928D               	bcf	141,1,c	;volatile
  3061   0010F8                     
  3062                           ;nxlcd.c: 269:                 LATEbits.LATE2 = 0;
  3063   0010F8  948D               	bcf	141,2,c	;volatile
  3064   0010FA                     
  3065                           ;nxlcd.c: 270:                 return 0;
  3066   0010FA  0E00               	movlw	0
  3067   0010FC                     l152:
  3068   0010FC  0012               	return		;funcret
  3069   0010FE                     __end_of_BusyXLCD:
  3070                           	callstack 0
  3071                           
  3072 ;; *************** function _DelayFor18TCY *****************
  3073 ;; Defined at:
  3074 ;;		line 12 in file "nxlcd.c"
  3075 ;; Parameters:    Size  Location     Type
  3076 ;;		None
  3077 ;; Auto vars:     Size  Location     Type
  3078 ;;		None
  3079 ;; Return value:  Size  Location     Type
  3080 ;;                  1    wreg      void 
  3081 ;; Registers used:
  3082 ;;		wreg
  3083 ;; Tracked objects:
  3084 ;;		On entry : 0/0
  3085 ;;		On exit  : 0/0
  3086 ;;		Unchanged: 0/0
  3087 ;; Data sizes:     COMRAM   BANK0   BANK1   BANK2   BANK3   BANK4   BANK5   BANK6   BANK7
  3088 ;;      Params:         0       0       0       0       0       0       0       0       0
  3089 ;;      Locals:         0       0       0       0       0       0       0       0       0
  3090 ;;      Temps:          0       0       0       0       0       0       0       0       0
  3091 ;;      Totals:         0       0       0       0       0       0       0       0       0
  3092 ;;Total ram usage:        0 bytes
  3093 ;; Hardware stack levels used: 1
  3094 ;; Hardware stack levels required when called: 1
  3095 ;; This function calls:
  3096 ;;		Nothing
  3097 ;; This function is called by:
  3098 ;;		_SetDDRamAddr
  3099 ;;		_BusyXLCD
  3100 ;;		_WriteCmdXLCD
  3101 ;;		_WriteDataXLCD
  3102 ;;		_SetCGRamAddr
  3103 ;;		_ReadAddrXLCD
  3104 ;;		_ReadDataXLCD
  3105 ;; This function uses a non-reentrant model
  3106 ;;
  3107                           
  3108                           	psect	text21
  3109   00127A                     __ptext21:
  3110                           	callstack 0
  3111   00127A                     _DelayFor18TCY:
  3112                           	callstack 27
  3113   00127A                     
  3114                           ;nxlcd.c: 14:     _delay((unsigned long)((20)*(20000000/4000000.0)));
  3115   00127A  0E21               	movlw	33
  3116   00127C                     u877:
  3117   00127C  2EE8               	decfsz	wreg,f,c
  3118   00127E  D7FE               	bra	u877
  3119   001280  0000               	nop	
  3120   001282  0012               	return		;funcret
  3121   001284                     __end_of_DelayFor18TCY:
  3122                           	callstack 0
  3123                           
  3124 ;; *************** function _ISR *****************
  3125 ;; Defined at:
  3126 ;;		line 106 in file "ex_ad.c"
  3127 ;; Parameters:    Size  Location     Type
  3128 ;;		None
  3129 ;; Auto vars:     Size  Location     Type
  3130 ;;		None
  3131 ;; Return value:  Size  Location     Type
  3132 ;;                  1    wreg      void 
  3133 ;; Registers used:
  3134 ;;		wreg, status,2, status,0
  3135 ;; Tracked objects:
  3136 ;;		On entry : 0/0
  3137 ;;		On exit  : 0/0
  3138 ;;		Unchanged: 0/0
  3139 ;; Data sizes:     COMRAM   BANK0   BANK1   BANK2   BANK3   BANK4   BANK5   BANK6   BANK7
  3140 ;;      Params:         0       0       0       0       0       0       0       0       0
  3141 ;;      Locals:         0       0       0       0       0       0       0       0       0
  3142 ;;      Temps:          0       0       0       0       0       0       0       0       0
  3143 ;;      Totals:         0       0       0       0       0       0       0       0       0
  3144 ;;Total ram usage:        0 bytes
  3145 ;; Hardware stack levels used: 1
  3146 ;; This function calls:
  3147 ;;		Nothing
  3148 ;; This function is called by:
  3149 ;;		Interrupt level 2
  3150 ;; This function uses a non-reentrant model
  3151 ;;
  3152                           
  3153                           	psect	intcode
  3154   000008                     __pintcode:
  3155                           	callstack 0
  3156   000008                     _ISR:
  3157                           	callstack 25
  3158                           
  3159                           ;incstack = 0
  3160   000008  8201               	bsf	int$flags,1,c	;set compiler interrupt flag (level 2)
  3161   00000A  ED40  F007         	call	int_func,f	;refresh shadow registers
  3162                           
  3163                           	psect	intcode_body
  3164   000E80                     __pintcode_body:
  3165                           	callstack 25
  3166   000E80                     int_func:
  3167                           	callstack 25
  3168   000E80  0006               	pop		; remove dummy address from shadow register refresh
  3169   000E82  A0F0               	btfss	240,0,c	;volatile
  3170   000E84  EF46  F007         	goto	i2u43_41
  3171   000E88  EF48  F007         	goto	i2u43_40
  3172   000E8C                     i2u43_41:
  3173   000E8C  EF59  F007         	goto	i2l1427
  3174   000E90                     i2u43_40:
  3175   000E90  0E33               	movlw	51
  3176   000E92  265D               	addwf	_valor^0,f,c
  3177   000E94  0E00               	movlw	0
  3178   000E96  225E               	addwfc	(_valor+1)^0,f,c
  3179   000E98  0E04               	movlw	4
  3180   000E9A  5C5E               	subwf	(_valor+1)^0,w,c
  3181   000E9C  A0D8               	btfss	status,0,c
  3182   000E9E  EF53  F007         	goto	i2u44_41
  3183   000EA2  EF55  F007         	goto	i2u44_40
  3184   000EA6                     i2u44_41:
  3185   000EA6  EF58  F007         	goto	i2l1425
  3186   000EAA                     i2u44_40:
  3187   000EAA  0E03               	movlw	3
  3188   000EAC  6E5E               	movwf	(_valor+1)^0,c
  3189   000EAE  685D               	setf	_valor^0,c
  3190   000EB0                     i2l1425:
  3191   000EB0  90F0               	bcf	240,0,c	;volatile
  3192   000EB2                     i2l1427:
  3193   000EB2  A2F0               	btfss	240,1,c	;volatile
  3194   000EB4  EF5E  F007         	goto	i2u45_41
  3195   000EB8  EF60  F007         	goto	i2u45_40
  3196   000EBC                     i2u45_41:
  3197   000EBC  EF75  F007         	goto	i2l82
  3198   000EC0                     i2u45_40:
  3199   000EC0  505E               	movf	(_valor+1)^0,w,c
  3200   000EC2  E109               	bnz	i2u46_40
  3201   000EC4  0E34               	movlw	52
  3202   000EC6  5C5D               	subwf	_valor^0,w,c
  3203   000EC8  A0D8               	btfss	status,0,c
  3204   000ECA  EF69  F007         	goto	i2u46_41
  3205   000ECE  EF6B  F007         	goto	i2u46_40
  3206   000ED2                     i2u46_41:
  3207   000ED2  EF71  F007         	goto	i2l1433
  3208   000ED6                     i2u46_40:
  3209   000ED6  0E33               	movlw	51
  3210   000ED8  5E5D               	subwf	_valor^0,f,c
  3211   000EDA  0E00               	movlw	0
  3212   000EDC  5A5E               	subwfb	(_valor+1)^0,f,c
  3213   000EDE  EF74  F007         	goto	i2l1435
  3214   000EE2                     i2l1433:
  3215   000EE2  6A5E               	clrf	(_valor+1)^0,c
  3216   000EE4  0E00               	movlw	0
  3217   000EE6  6E5D               	movwf	_valor^0,c
  3218   000EE8                     i2l1435:
  3219   000EE8  92F0               	bcf	240,1,c	;volatile
  3220   000EEA                     i2l82:
  3221   000EEA  9201               	bcf	int$flags,1,c	;clear compiler interrupt flag (level 2)
  3222   000EEC  0011               	retfie		f
  3223   000EEE                     __end_of_ISR:
  3224                           	callstack 0
  3225                           
  3226                           	psect	rparam
  3227   000001                     ___rparam_used  equ	1
  3228   000000                     ___param_bank   equ	0
  3229   000000                     __Lparam        equ	__Lrparam
  3230   000000                     __Hparam        equ	__Hrparam
  3231   000001                     btemp           set	1	;btemp
  3232   000001                     int$flags       set	1
  3233   000001                     btemp0          set	1
  3234   000002                     btemp1          set	2
  3235                           
  3236                           	psect	idloc
  3237                           
  3238                           ;Config register IDLOC0 @ 0x200000
  3239                           ;	unspecified, using default values
  3240   200000                     	org	2097152
  3241   200000  FF                 	db	255
  3242                           
  3243                           ;Config register IDLOC1 @ 0x200001
  3244                           ;	unspecified, using default values
  3245   200001                     	org	2097153
  3246   200001  FF                 	db	255
  3247                           
  3248                           ;Config register IDLOC2 @ 0x200002
  3249                           ;	unspecified, using default values
  3250   200002                     	org	2097154
  3251   200002  FF                 	db	255
  3252                           
  3253                           ;Config register IDLOC3 @ 0x200003
  3254                           ;	unspecified, using default values
  3255   200003                     	org	2097155
  3256   200003  FF                 	db	255
  3257                           
  3258                           ;Config register IDLOC4 @ 0x200004
  3259                           ;	unspecified, using default values
  3260   200004                     	org	2097156
  3261   200004  FF                 	db	255
  3262                           
  3263                           ;Config register IDLOC5 @ 0x200005
  3264                           ;	unspecified, using default values
  3265   200005                     	org	2097157
  3266   200005  FF                 	db	255
  3267                           
  3268                           ;Config register IDLOC6 @ 0x200006
  3269                           ;	unspecified, using default values
  3270   200006                     	org	2097158
  3271   200006  FF                 	db	255
  3272                           
  3273                           ;Config register IDLOC7 @ 0x200007
  3274                           ;	unspecified, using default values
  3275   200007                     	org	2097159
  3276   200007  FF                 	db	255
  3277                           
  3278                           	psect	config
  3279                           
  3280                           ;Config register CONFIG1L @ 0x300000
  3281                           ;	PLL Prescaler Selection bits
  3282                           ;	PLLDIV = 0x0, unprogrammed default
  3283                           ;	System Clock Postscaler Selection bits
  3284                           ;	CPUDIV = OSC1_PLL2, [Primary Oscillator Src: /1][96 MHz PLL Src: /2]
  3285                           ;	USB Clock Selection bit (used in Full-Speed USB mode only; UCFG:FSEN = 1)
  3286                           ;	USBDIV = 0x0, unprogrammed default
  3287   300000                     	org	3145728
  3288   300000  00                 	db	0
  3289                           
  3290                           ;Config register CONFIG1H @ 0x300001
  3291                           ;	Oscillator Selection bits
  3292                           ;	FOSC = HS, HS oscillator (HS)
  3293                           ;	Fail-Safe Clock Monitor Enable bit
  3294                           ;	FCMEN = 0x0, unprogrammed default
  3295                           ;	Internal/External Oscillator Switchover bit
  3296                           ;	IESO = 0x0, unprogrammed default
  3297   300001                     	org	3145729
  3298   300001  0C                 	db	12
  3299                           
  3300                           ;Config register CONFIG2L @ 0x300002
  3301                           ;	unspecified, using default values
  3302                           ;	Power-up Timer Enable bit
  3303                           ;	PWRT = 0x1, unprogrammed default
  3304                           ;	Brown-out Reset Enable bits
  3305                           ;	BOR = 0x3, unprogrammed default
  3306                           ;	Brown-out Reset Voltage bits
  3307                           ;	BORV = 0x3, unprogrammed default
  3308                           ;	USB Voltage Regulator Enable bit
  3309                           ;	VREGEN = 0x0, unprogrammed default
  3310   300002                     	org	3145730
  3311   300002  1F                 	db	31
  3312                           
  3313                           ;Config register CONFIG2H @ 0x300003
  3314                           ;	Watchdog Timer Enable bit
  3315                           ;	WDT = OFF, WDT disabled (control is placed on the SWDTEN bit)
  3316                           ;	Watchdog Timer Postscale Select bits
  3317                           ;	WDTPS = 0xF, unprogrammed default
  3318   300003                     	org	3145731
  3319   300003  1E                 	db	30
  3320                           
  3321                           ; Padding undefined space
  3322   300004                     	org	3145732
  3323   300004  FF                 	db	255
  3324                           
  3325                           ;Config register CONFIG3H @ 0x300005
  3326                           ;	CCP2 MUX bit
  3327                           ;	CCP2MX = ON, CCP2 input/output is multiplexed with RC1
  3328                           ;	PORTB A/D Enable bit
  3329                           ;	PBADEN = OFF, PORTB<4:0> pins are configured as digital I/O on Reset
  3330                           ;	Low-Power Timer 1 Oscillator Enable bit
  3331                           ;	LPT1OSC = 0x0, unprogrammed default
  3332                           ;	MCLR Pin Enable bit
  3333                           ;	MCLRE = 0x1, unprogrammed default
  3334   300005                     	org	3145733
  3335   300005  81                 	db	129
  3336                           
  3337                           ;Config register CONFIG4L @ 0x300006
  3338                           ;	Stack Full/Underflow Reset Enable bit
  3339                           ;	STVREN = 0x1, unprogrammed default
  3340                           ;	Single-Supply ICSP Enable bit
  3341                           ;	LVP = OFF, Single-Supply ICSP disabled
  3342                           ;	Dedicated In-Circuit Debug/Programming Port (ICPORT) Enable bit
  3343                           ;	ICPRT = 0x0, unprogrammed default
  3344                           ;	Extended Instruction Set Enable bit
  3345                           ;	XINST = 0x0, unprogrammed default
  3346                           ;	Background Debugger Enable bit
  3347                           ;	DEBUG = 0x1, unprogrammed default
  3348   300006                     	org	3145734
  3349   300006  81                 	db	129
  3350                           
  3351                           ; Padding undefined space
  3352   300007                     	org	3145735
  3353   300007  FF                 	db	255
  3354                           
  3355                           ;Config register CONFIG5L @ 0x300008
  3356                           ;	unspecified, using default values
  3357                           ;	Code Protection bit
  3358                           ;	CP0 = 0x1, unprogrammed default
  3359                           ;	Code Protection bit
  3360                           ;	CP1 = 0x1, unprogrammed default
  3361                           ;	Code Protection bit
  3362                           ;	CP2 = 0x1, unprogrammed default
  3363                           ;	Code Protection bit
  3364                           ;	CP3 = 0x1, unprogrammed default
  3365   300008                     	org	3145736
  3366   300008  0F                 	db	15
  3367                           
  3368                           ;Config register CONFIG5H @ 0x300009
  3369                           ;	unspecified, using default values
  3370                           ;	Boot Block Code Protection bit
  3371                           ;	CPB = 0x1, unprogrammed default
  3372                           ;	Data EEPROM Code Protection bit
  3373                           ;	CPD = 0x1, unprogrammed default
  3374   300009                     	org	3145737
  3375   300009  C0                 	db	192
  3376                           
  3377                           ;Config register CONFIG6L @ 0x30000A
  3378                           ;	unspecified, using default values
  3379                           ;	Write Protection bit
  3380                           ;	WRT0 = 0x1, unprogrammed default
  3381                           ;	Write Protection bit
  3382                           ;	WRT1 = 0x1, unprogrammed default
  3383                           ;	Write Protection bit
  3384                           ;	WRT2 = 0x1, unprogrammed default
  3385                           ;	Write Protection bit
  3386                           ;	WRT3 = 0x1, unprogrammed default
  3387   30000A                     	org	3145738
  3388   30000A  0F                 	db	15
  3389                           
  3390                           ;Config register CONFIG6H @ 0x30000B
  3391                           ;	unspecified, using default values
  3392                           ;	Configuration Register Write Protection bit
  3393                           ;	WRTC = 0x1, unprogrammed default
  3394                           ;	Boot Block Write Protection bit
  3395                           ;	WRTB = 0x1, unprogrammed default
  3396                           ;	Data EEPROM Write Protection bit
  3397                           ;	WRTD = 0x1, unprogrammed default
  3398   30000B                     	org	3145739
  3399   30000B  E0                 	db	224
  3400                           
  3401                           ;Config register CONFIG7L @ 0x30000C
  3402                           ;	unspecified, using default values
  3403                           ;	Table Read Protection bit
  3404                           ;	EBTR0 = 0x1, unprogrammed default
  3405                           ;	Table Read Protection bit
  3406                           ;	EBTR1 = 0x1, unprogrammed default
  3407                           ;	Table Read Protection bit
  3408                           ;	EBTR2 = 0x1, unprogrammed default
  3409                           ;	Table Read Protection bit
  3410                           ;	EBTR3 = 0x1, unprogrammed default
  3411   30000C                     	org	3145740
  3412   30000C  0F                 	db	15
  3413                           
  3414                           ;Config register CONFIG7H @ 0x30000D
  3415                           ;	unspecified, using default values
  3416                           ;	Boot Block Table Read Protection bit
  3417                           ;	EBTRB = 0x1, unprogrammed default
  3418   30000D                     	org	3145741
  3419   30000D  40                 	db	64
  3420                           tosu	equ	0xFFF
  3421                           tosh	equ	0xFFE
  3422                           tosl	equ	0xFFD
  3423                           stkptr	equ	0xFFC
  3424                           pclatu	equ	0xFFB
  3425                           pclath	equ	0xFFA
  3426                           pcl	equ	0xFF9
  3427                           tblptru	equ	0xFF8
  3428                           tblptrh	equ	0xFF7
  3429                           tblptrl	equ	0xFF6
  3430                           tablat	equ	0xFF5
  3431                           prodh	equ	0xFF4
  3432                           prodl	equ	0xFF3
  3433                           indf0	equ	0xFEF
  3434                           postinc0	equ	0xFEE
  3435                           postdec0	equ	0xFED
  3436                           preinc0	equ	0xFEC
  3437                           plusw0	equ	0xFEB
  3438                           fsr0h	equ	0xFEA
  3439                           fsr0l	equ	0xFE9
  3440                           wreg	equ	0xFE8
  3441                           indf1	equ	0xFE7
  3442                           postinc1	equ	0xFE6
  3443                           postdec1	equ	0xFE5
  3444                           preinc1	equ	0xFE4
  3445                           plusw1	equ	0xFE3
  3446                           fsr1h	equ	0xFE2
  3447                           fsr1l	equ	0xFE1
  3448                           bsr	equ	0xFE0
  3449                           indf2	equ	0xFDF
  3450                           postinc2	equ	0xFDE
  3451                           postdec2	equ	0xFDD
  3452                           preinc2	equ	0xFDC
  3453                           plusw2	equ	0xFDB
  3454                           fsr2h	equ	0xFDA
  3455                           fsr2l	equ	0xFD9
  3456                           status	equ	0xFD8

Data Sizes:
    Strings     15
    Constant    0
    Data        2
    BSS         37
    Persistent  0
    Stack       0

Auto Spaces:
    Space          Size  Autos    Used
    COMRAM           94     54      93
    BANK0           160      0       0
    BANK1           256      0       0
    BANK2           256      0       0
    BANK3           256      0       0
    BANK4           256      0       0
    BANK5           256      0       0
    BANK6           256      0       0
    BANK7           256      0       0

Pointer List with Targets:

    f$.$buffer	PTR unsigned char  size(1) Largest target is 6
		 -> main@temp_str(COMRAM[6]), 

    f$.$source	PTR const unsigned char  size(2) Largest target is 0

    fputc@fp	PTR struct _IO_FILE size(1) Largest target is 11
		 -> sprintf@f(COMRAM[11]), 

    fputc@fp$.$buffer	PTR unsigned char  size(1) Largest target is 6
		 -> main@temp_str(COMRAM[6]), 

    fputc@fp$.$source	PTR const unsigned char  size(2) Largest target is 0

    putrsXLCD@buffer	PTR const unsigned char  size(1) Largest target is 3
		 -> STR_3(CODE[3]), 

    putsXLCD@buffer	PTR unsigned char  size(2) Largest target is 6
		 -> main@temp_str(COMRAM[6]), STR_2(CODE[6]), 

    S1187$buffer	PTR unsigned char  size(1) Largest target is 6
		 -> main@temp_str(COMRAM[6]), 

    S1187$source	PTR const unsigned char  size(2) Largest target is 0

    sprintf@ap	PTR void [1] size(1) Largest target is 2
		 -> ?_sprintf(COMRAM[2]), 

    sprintf@fmt	PTR const unsigned char  size(1) Largest target is 3
		 -> STR_1(CODE[3]), 

    sprintf@s	PTR unsigned char  size(1) Largest target is 6
		 -> main@temp_str(COMRAM[6]), 

    UART_Write_Text@txt	PTR unsigned char  size(2) Largest target is 6
		 -> main@temp_str(COMRAM[6]), STR_4(CODE[3]), 

    vfpfcnvrt@ap	PTR PTR void  size(1) Largest target is 1
		 -> sprintf@ap(COMRAM[1]), 

    vfpfcnvrt@cp	PTR unsigned char  size(1) Largest target is 3
		 -> STR_1(CODE[3]), 

    vfpfcnvrt@fmt	PTR PTR unsigned char  size(1) Largest target is 1
		 -> vfprintf@cfmt(COMRAM[1]), 

    vfpfcnvrt@fp	PTR struct _IO_FILE size(1) Largest target is 11
		 -> sprintf@f(COMRAM[11]), 

    vfprintf@ap	PTR PTR void  size(1) Largest target is 1
		 -> sprintf@ap(COMRAM[1]), 

    vfprintf@cfmt	PTR unsigned char  size(1) Largest target is 3
		 -> STR_1(CODE[3]), 

    vfprintf@fmt	PTR const unsigned char  size(1) Largest target is 3
		 -> STR_1(CODE[3]), 

    vfprintf@fp	PTR struct _IO_FILE size(1) Largest target is 11
		 -> sprintf@f(COMRAM[11]), 


Critical Paths under _main in COMRAM

    _main->_sprintf
    _sprintf->_vfprintf
    _vfprintf->_vfpfcnvrt
    _vfpfcnvrt->_fputc
    _putsXLCD->_WriteDataXLCD
    _putrsXLCD->_WriteDataXLCD
    ___aldiv->___lmul
    _OpenXLCD->_DelayPORXLCD
    _OpenXLCD->_DelayXLCD
    _OpenXLCD->_SetDDRamAddr
    _OpenXLCD->_WriteCmdXLCD

Critical Paths under _ISR in COMRAM

    None.

Critical Paths under _main in BANK0

    None.

Critical Paths under _ISR in BANK0

    None.

Critical Paths under _main in BANK1

    None.

Critical Paths under _ISR in BANK1

    None.

Critical Paths under _main in BANK2

    None.

Critical Paths under _ISR in BANK2

    None.

Critical Paths under _main in BANK3

    None.

Critical Paths under _ISR in BANK3

    None.

Critical Paths under _main in BANK4

    None.

Critical Paths under _ISR in BANK4

    None.

Critical Paths under _main in BANK5

    None.

Critical Paths under _ISR in BANK5

    None.

Critical Paths under _main in BANK6

    None.

Critical Paths under _ISR in BANK6

    None.

Critical Paths under _main in BANK7

    None.

Critical Paths under _ISR in BANK7

    None.

Call Graph Tables:

 ---------------------------------------------------------------------------------
 (Depth) Function   	        Calls       Base Space   Used Autos Params    Refs
 ---------------------------------------------------------------------------------
 (0) _main                                                22    22      0    2242
                                             38 COMRAM    16    16      0
                           _OpenXLCD
                    _UART_Write_Text
                       _WriteCmdXLCD
                            ___aldiv
                             ___lmul
                          _ajusta_dc
                          _putrsXLCD
                           _putsXLCD
                            _sprintf
 ---------------------------------------------------------------------------------
 (1) _sprintf                                             18    14      4    1329
                                             22 COMRAM    16    12      4
                           _vfprintf
 ---------------------------------------------------------------------------------
 (2) _vfprintf                                             4     1      3    1128
                                             18 COMRAM     4     1      3
                          _vfpfcnvrt
 ---------------------------------------------------------------------------------
 (3) _vfpfcnvrt                                           11     8      3    1003
                                              8 COMRAM    10     7      3
                            ___lwdiv
                            ___lwmod
                              _fputc
 ---------------------------------------------------------------------------------
 (4) _fputc                                                8     5      3     230
                                              0 COMRAM     8     5      3
                              _putch
 ---------------------------------------------------------------------------------
 (5) _putch                                                1     1      0       0
 ---------------------------------------------------------------------------------
 (4) ___lwmod                                              5     1      4     161
                                              0 COMRAM     5     1      4
 ---------------------------------------------------------------------------------
 (4) ___lwdiv                                              7     3      4     164
                                              0 COMRAM     7     3      4
 ---------------------------------------------------------------------------------
 (1) _putsXLCD                                             2     0      2      77
                                              1 COMRAM     2     0      2
                           _BusyXLCD
                      _WriteDataXLCD
 ---------------------------------------------------------------------------------
 (1) _putrsXLCD                                            1     0      1      76
                                              1 COMRAM     1     0      1
                           _BusyXLCD
                      _WriteDataXLCD
 ---------------------------------------------------------------------------------
 (2) _WriteDataXLCD                                        1     1      0      30
                                              0 COMRAM     1     1      0
                      _DelayFor18TCY
 ---------------------------------------------------------------------------------
 (1) _ajusta_dc                                            4     2      2      67
                                              0 COMRAM     4     2      2
 ---------------------------------------------------------------------------------
 (1) ___lmul                                              12     4      8      94
                                              0 COMRAM    12     4      8
 ---------------------------------------------------------------------------------
 (1) ___aldiv                                             14     6      8     304
                                             12 COMRAM    14     6      8
                             ___lmul (ARG)
 ---------------------------------------------------------------------------------
 (1) _UART_Write_Text                                      2     0      2      47
                                              0 COMRAM     2     0      2
 ---------------------------------------------------------------------------------
 (1) _OpenXLCD                                             1     1      0      75
                                              1 COMRAM     1     1      0
                           _BusyXLCD
                       _DelayPORXLCD
                          _DelayXLCD
                       _SetDDRamAddr
                       _WriteCmdXLCD
 ---------------------------------------------------------------------------------
 (2) _WriteCmdXLCD                                         1     1      0      30
                                              0 COMRAM     1     1      0
                      _DelayFor18TCY
 ---------------------------------------------------------------------------------
 (2) _SetDDRamAddr                                         1     1      0      30
                                              0 COMRAM     1     1      0
                      _DelayFor18TCY
 ---------------------------------------------------------------------------------
 (2) _DelayXLCD                                            1     1      0       0
                                              0 COMRAM     1     1      0
 ---------------------------------------------------------------------------------
 (2) _DelayPORXLCD                                         1     1      0       0
                                              0 COMRAM     1     1      0
 ---------------------------------------------------------------------------------
 (2) _BusyXLCD                                             0     0      0       0
                      _DelayFor18TCY
 ---------------------------------------------------------------------------------
 (3) _DelayFor18TCY                                        0     0      0       0
 ---------------------------------------------------------------------------------
 Estimated maximum stack depth 5
 ---------------------------------------------------------------------------------
 (Depth) Function   	        Calls       Base Space   Used Autos Params    Refs
 ---------------------------------------------------------------------------------
 (6) _ISR                                                  0     0      0       0
 ---------------------------------------------------------------------------------
 Estimated maximum stack depth 6
 ---------------------------------------------------------------------------------

 Call Graph Graphs:

 _main (ROOT)
   _OpenXLCD
     _BusyXLCD
       _DelayFor18TCY
     _DelayPORXLCD
     _DelayXLCD
     _SetDDRamAddr
       _DelayFor18TCY
     _WriteCmdXLCD
       _DelayFor18TCY
   _UART_Write_Text
   _WriteCmdXLCD
   ___aldiv
     ___lmul (ARG)
   ___lmul
   _ajusta_dc
   _putrsXLCD
     _BusyXLCD
     _WriteDataXLCD
       _DelayFor18TCY
   _putsXLCD
     _BusyXLCD
     _WriteDataXLCD
   _sprintf
     _vfprintf
       _vfpfcnvrt
         ___lwdiv
         ___lwmod
         _fputc
           _putch

 _ISR (ROOT)

Address spaces:
Name               Size   Autos  Total    Usage
BIGRAM            2047      0       0      0.0%
BITBANK7           256      0       0      0.0%
BANK7              256      0       0      0.0%
BITBANK6           256      0       0      0.0%
BANK6              256      0       0      0.0%
BITBANK5           256      0       0      0.0%
BANK5              256      0       0      0.0%
BITBANK4           256      0       0      0.0%
BANK4              256      0       0      0.0%
BITBANK3           256      0       0      0.0%
BANK3              256      0       0      0.0%
BITBANK2           256      0       0      0.0%
BANK2              256      0       0      0.0%
BITBANK1           256      0       0      0.0%
BANK1              256      0       0      0.0%
BITBANK0           160      0       0      0.0%
BANK0              160      0       0      0.0%
BITCOMRAM           94      0       0      0.0%
COMRAM              94     54      93     98.9%
BITBIGSFRh          82      0       0      0.0%
BITBIGSFRlll        35      0       0      0.0%
BITBIGSFRlh         23      0       0      0.0%
BITBIGSFRllh        16      0       0      0.0%
STACK                0      0       0      0.0%
DATA                 0      0      93      0.0%


Microchip Technology PIC18 Macro Assembler V3.10 build 20250813170317 
Symbol Table                                                                                   Thu Jun 25 10:12:03 2026

            ajusta_dc@dc 0002                       l63 106E                       l72 0FC0  
                     l68 0F5C                       l88 087C                      l112 1282  
                    l115 1278                      l118 1268                      l142 0CF0  
                    l151 10EA                      l152 10FC                      l162 11B8  
                    l148 113C                      l165 117A                      l174 0E7E  
                    l183 10B6                      l265 0C02                      l197 0F46  
                    l198 0F56                      l804 1024                      l794 0E0C  
                    l787 0E04                      l797 101C                      l974 1256  
                    u220 0C54                      u221 0C50                      u230 0C68  
                    u231 0C64                      u160 10D4                      u240 0C82  
                    u161 10D0                      u241 0C7E                      u250 0C9C  
                    u251 0C98                      u260 0CB6                      u500 0DEE  
                    u261 0CB2                      u501 0DEA                      u270 0CD0  
                    u510 0FD4                      _PR2 0FCB                      u271 0CCC  
                    u511 0FD0                      u280 0CEA                      u520 0FF2  
                    u600 0A6C                      u281 0CE6                      u521 0FEE  
                    u601 0A68                      u530 1008                      u610 0A7C  
                    u531 1004                      u611 0A78                      u700 0E6E  
                    u540 0D02                      u620 0AAE                      _ISR 0008  
                    u541 0CFE                      u621 0AAA                      u710 0E7E  
                    u550 0D12                      u630 11EE                      u711 0E7A  
                    u551 0D0E                      u631 11EA                      u640 0F6A  
                    u800 0BB0                      u720 1088                      u480 0DB4  
                    u560 0D38                      u641 0F66                      u801 0BAC  
                    u721 1084                      u481 0DB0                      u561 0D34  
                    u650 0F8A                      u810 0BE2                      u730 10B6  
                    u490 0DD2                      u570 0D6A                      u811 0BDE  
                    u731 10B2                      u707 0E64                      u491 0DCE  
                    u571 0D66                      u660 0FB0                      u740 0F0C  
                    u580 09B8                      u820 088A                      u741 0F08  
                    u581 09B4                      u821 0886                      u670 0FC0  
                    u750 0F46                      u590 09F4                      u671 0FBC  
                    u751 0F42                      u591 09F0                      u760 0B0A  
                    u680 0E26                      u657 0F80                      u761 0B06  
                    u681 0E22                      u770 0B2C                      u690 0E46  
                    u667 0FA6                      u771 0B28                      u780 0B66  
                    u781 0B62                      u837 0864                      u790 0B88  
                    u791 0B84                      u847 0980                      u857 125E  
                    u697 0E3C                      u867 1270                      u877 127C  
                    wreg 0FE8                     ?_ISR 0002                     l1011 0AF8  
                   l1030 0D9A                     l1201 10F8                     l1041 1286  
                   l1018 11F4                     l1203 10FA                     l1211 1112  
                   l1221 112C                     l1213 1114                     l1301 0C36  
                   l1223 1130                     l1215 1118                     l1207 1100  
                   l1151 1194                     l1143 117E                     l1311 0C6E  
                   l1303 0C3A                     l1231 1140                     l1225 1132  
                   l1217 111A                     l1209 1110                     l1161 11AE  
                   l1153 1196                     l1145 118C                     l1321 0CB6  
                   l1313 0C82                     l1305 0C40                     l1241 1158  
                   l1233 114E                     l1171 10B8                     l1227 1136  
                   l1219 111E                     l1163 11B2                     l1155 119A  
                   l1147 118E                     l1323 0CBC                     l1315 0C88  
                   l1307 0C54                     l1251 1174                     l1243 115C  
                   l1235 1150                     l1181 10D6                     l1173 10BC  
                   l1157 11A8                     l1149 1190                     l1325 0CD0  
                   l1317 0C9C                     l1309 0C68                     l1245 116A  
                   l1237 1152                     l1095 127A                     l1183 10DA  
                   l1175 10C0                     l1167 126A                     l1159 11AC  
                   l1327 0CD6                     l1319 0CA2                     l1247 116E  
                   l1239 1156                     l1185 10E0                     l1177 10C6  
                   l1169 1258                     l1329 0CEA                     l1281 0C12  
                   l1249 1170                     l1601 1016                     l1195 10EC  
                   l1187 10E2                     l1179 10D4                     l1291 0C1E  
                   l1283 0C14                     l1275 0C06                     l1611 0D38  
                   l1603 0CF2                     l1197 10F0                     l1189 10E4  
                   l1293 0C24                     l1285 0C16                     l1277 0C0E  
                   l1701 0E4A                     l1613 0D6A                     l1605 0D02  
                   l1621 09C0                     l1199 10F6                     l1295 0C28  
                   l1287 0C18                     l1279 0C10                     l1711 1098  
                   l1703 0E4E                     l1607 0D12                     l1631 0A0C  
                   l1623 09CA                     l1297 0C2C                     l1289 0C1A  
                   l1721 0F1C                     l1713 109A                     l1705 1070  
                   l1609 0D1C                     l1641 0A6C                     l1633 0A1A  
                   l1625 09CE                     l1617 0996                     l1801 088A  
                   l1299 0C32                     l1731 0B1A                     l1723 0F26  
                   l1715 0EEE                     l1707 1074                     l1571 0DBC  
                   l1643 0A80                     l1635 0A1E                     l1651 0AB2  
                   l1627 09D8                     l1619 09B8                     l1811 093A  
                   l1803 08A0                     l1741 0B50                     l1733 0B1E  
                   l1725 0AFA                     l1717 0EFE                     l1709 1088  
                   l1581 0DF6                     l1573 0DC4                     l1565 0D9C  
                   l1645 0A9A                     l1637 0A40                     l1629 09F4  
                   l1653 0ACA                     l1821 0976                     l1813 094A  
                   l1805 08F4                     l1751 0B92                     l1743 0B66  
                   l1735 0B2C                     l1727 0AFC                     l1719 0F0C  
                   l1583 0DF8                     l1575 0DD2                     l1567 0DA2  
                   l1591 0FDC                     l1647 0A9C                     l1639 0A5A  
                   l1663 11BA                     l1815 0954                     l1807 0920  
                   l1681 0F90                     l1753 0BB0                     l1745 0B6E  
                   l1761 0BD2                     l1737 0B3C                     l1729 0B0A  
                   l1673 1026                     l1585 0DFE                     l1577 0DD8  
                   l1569 0DB4                     l1593 0FE4                     l1657 0AD6  
                   l1665 11C2                     l1817 095C                     l1809 0934  
                   l1675 0F58                     l1763 0BE2                     l1755 0BC0  
                   l1747 0B7A                     l1739 0B40                     l1579 0DEE  
                   l1595 0FF2                     l1587 0FC2                     l1667 11D2  
                   l1691 124C                     l1683 1228                     l1819 0966  
                   l1771 0826                     l1677 0F6A                     l1765 0BF2  
                   l1757 0BC2                     l1749 0B88                     l1597 1008  
                   l1589 0FD4                     l1669 11EE                     l1685 1230  
                   l1781 0848                     l1773 0840                     l1679 0F8C  
                   l1759 0BCC                     l1695 0E0E                     l1599 1010  
                   l1687 1236                     l1791 0852                     l1783 084A  
                   l1775 0842                     l1697 0E12                     l1689 123C  
                   l1793 0858                     l1785 084C                     l1777 0844  
                   l1769 0812                     l1699 0E26                     l1795 085E  
                   l1787 084E                     l1779 0846                     l1797 086E  
                   l1789 0850                     l1799 087A                     STR_1 080D  
                   STR_2 0801                     STR_3 080A                     STR_4 0807  
                   i2l82 0EEA                     _dbuf 0038                     _main 0812  
                   _prec 005A                     fsr1h 0FE2                     fsr2h 0FDA  
                   indf1 0FE7                     indf2 0FDF                     fsr1l 0FE1  
                   fsr2l 0FD9                     btemp 0001                     start 000E  
           ___param_bank 0000  __end_of_UART_Write_Text 0FC2                    ??_ISR 0002  
           _WriteCmdXLCD 117C          __end_of___aldiv 0C04            ?_SetDDRamAddr 0002  
                  ?_main 0002                    _T2CON 0FCA          __end_of___lwdiv 0E0E  
        __end_of___lwmod 1026                    _RCSTA 0FAB             vfpfcnvrt@fmt 000B  
                  _SPBRG 0FAF                    _PORTD 0F83                    _TRISA 0F92  
                  _TRISB 0F93                    _TRISD 0F95                    _TXREG 0FAD  
                  _TXSTA 0FAC      ___lmul@multiplicand 0006                    _flags 005C  
                  _fputc 0CF2                    _valor 005D                    btemp0 0001  
                  btemp1 0002                    _width 0058                    _putch 1286  
                  main@q 0034                    main@v 0030             main@temp_str 002A  
                  tablat 0FF5                    status 0FD8          __end_of_sprintf 1258  
        __initialization 11F6             __end_of_main 0996         __end_of_BusyXLCD 10FE  
         ??_SetDDRamAddr 0002         __end_of_OpenXLCD 0CF2                   ??_main 0028  
          __activetblptr 0002            _WriteDataXLCD 113E                   _ADCON0 0FC2  
                 _ADCON1 0FC1                   _ADCON2 0FC0                   ?_fputc 0002  
                 _ADRESH 0FC4                   _ADRESL 0FC3                   _CCPR2L 0FBB  
                 ?_putch 0002                   i2l1421 0E90                   i2l1431 0ED6  
                 i2l1423 0EAA                   i2l1433 0EE2                   i2l1425 0EB0  
                 i2l1435 0EE8                   i2l1427 0EB2                   i2l1419 0E82  
                 i2l1429 0EC0             _DelayPORXLCD 126A             vfprintf@cfmt 0017  
                 ___lmul 0EEE                ??___aldiv 0016         ?_UART_Write_Text 0002  
              ??___lwdiv 0006                ??___lwmod 0006                   clear_0 1214  
                 isa$std 0001           ?_WriteDataXLCD 0002                   fputc@c 0002  
           __pdataCOMRAM 005D             __mediumconst 0800                   tblptrh 0FF7  
                 tblptrl 0FF6                   tblptru 0FF8                   putch@c 0002  
       __end_of_putsXLCD 0E80         __end_of_vfprintf 11F6                ??_sprintf 001C  
      __end_of_DelayXLCD 126A               __accesstop 0060  __end_of__initialization 121A  
          ___rparam_used 0001           __pcstackCOMRAM 0002            __end_of_fputc 0D9C  
          __end_of_putch 1288                  ??_fputc 0005                  ??_putch 0002  
              ?_BusyXLCD 0002          WriteCmdXLCD@cmd 0002     __end_of_SetDDRamAddr 113E  
              ?_OpenXLCD 0002        WriteDataXLCD@data 0002                  ?___lmul 0002  
                _CCP2CON 0FBA          ??_WriteDataXLCD 0002           ___lmul@product 000A  
                i2u43_40 0E90                  i2u43_41 0E8C                  i2u44_40 0EAA  
                i2u44_41 0EA6                  i2u45_40 0EC0                  i2u45_41 0EBC  
                i2u46_40 0ED6                  i2u46_41 0ED2               ??_BusyXLCD 0002  
             ??_OpenXLCD 0003                  __Hparam 0000                  __Lparam 0000  
      __end_of_ajusta_dc 1070                  ___aldiv 0AFA            _DelayFor18TCY 127A  
              ?_putsXLCD 0003                  ___lwdiv 0D9C                  ___lwmod 0FC2  
              ?_vfprintf 0014             __psmallconst 0800                  __pcinit 11F6  
        putrsXLCD@buffer 0003                  __ramtop 0800                  __ptext0 0812  
                __ptext1 1228                  __ptext2 11BA                  __ptext3 0996  
                __ptext4 0CF2                  __ptext5 1286                  __ptext6 0FC2  
                __ptext7 0D9C                  __ptext8 0E0E                  __ptext9 1070  
       ___aldiv@dividend 000E                  _sprintf 1228           __pintcode_body 0E80  
   end_of_initialization 121A                  fputc@fp 0004            __Lmediumconst 0000  
                int_func 0E80        __end_of_vfpfcnvrt 0AFA           ?_DelayFor18TCY 0002  
       ___aldiv@quotient 0018                  postdec2 0FDD                  postinc0 0FEE  
                postinc1 0FE6                  postinc2 0FDE         vfpfcnvrt@convarg 000E  
             ??_putsXLCD 0005               ??_vfprintf 0017        __end_of_putrsXLCD 10B8  
              _TRISCbits 0F94                _TRISEbits 0F96              _CCP2CONbits 0FBA  
              _DelayXLCD 1258           __end_of___lmul 0F58              vfpfcnvrt@ap 000C  
            vfpfcnvrt@cp 0012              vfpfcnvrt@fp 000A            __pidataCOMRAM 1284  
           _SetDDRamAddr 10FE       SetDDRamAddr@DDaddr 0002      start_initialization 11F6  
            __end_of_ISR 0EEE               ?_DelayXLCD 0002          ??_DelayFor18TCY 0002  
            vfprintf@fmt 0015                 ??___lmul 000A            ?_WriteCmdXLCD 0002  
            __pbssCOMRAM 0038           putsXLCD@buffer 0003         ___lwdiv@dividend 0002  
              __pintcode 0008                 ?___aldiv 000E           ??_WriteCmdXLCD 0002  
               ?___lwdiv 0002                 ?___lwmod 0002                _ajusta_dc 1026  
  __end_of_WriteDataXLCD 117C              __smallconst 0800         ___lwdiv@quotient 0006  
               ?_sprintf 0018        ??_UART_Write_Text 0004          ___aldiv@divisor 0012  
        ___aldiv@counter 0016                 _LATEbits 0F8D              ??_DelayXLCD 0002  
          ?_DelayPORXLCD 0002                 _PIR1bits 0F9E          OpenXLCD@lcdtype 0003  
               _RCONbits 0FD0               ?_ajusta_dc 0002                _vfpfcnvrt 0996  
             _ADCON0bits 0FC2                _putrsXLCD 1070               vfpfcnvrt@c 0013  
      ___lmul@multiplier 0002              _INTCON2bits 0FF1              _INTCON3bits 0FF0  
               _BusyXLCD 10B8           ??_DelayPORXLCD 0002                 _OpenXLCD 0C04  
               __Hrparam 0000               vfprintf@ap 0016                 __Lrparam 0000  
             vfprintf@fp 0014               ?_vfpfcnvrt 000A               sprintf@fmt 0019  
             ?_putrsXLCD 0003          ___lwdiv@divisor 0004          ___lwdiv@counter 0008  
               __ptext10 113E                 __ptext11 1026                 __ptext20 10B8  
               __ptext12 0EEE                 __ptext21 127A                 __ptext13 0AFA  
               __ptext14 0F58                 __ptext15 0C04                 __ptext16 117C  
               __ptext17 10FE                 __ptext18 1258                 __ptext19 126A  
   __end_of_WriteCmdXLCD 11BA                 isa$xinst 0000                 int$flags 0001  
               _putsXLCD 0E0E                 _vfprintf 11BA              ??_ajusta_dc 0004  
               main@temp 0036               _INTCONbits 0FF2                 intlevel2 0000  
              sprintf@ap 001C         ___lwmod@dividend 0002       UART_Write_Text@txt 0002  
  __end_of_DelayFor18TCY 1284              ??_vfpfcnvrt 000D          _UART_Write_Text 0F58  
               sprintf@f 001D                 sprintf@s 0018     __end_of_DelayPORXLCD 127A  
            ??_putrsXLCD 0004          ___lwmod@divisor 0004          ___lwmod@counter 0006  
           ___aldiv@sign 0017  
